Certificate:
    Data:
        Version: 3 (0x2)
        Serial Number: 3 (0x3)
        Signature Algorithm: sha256WithRSAEncryption
        Issuer: C=US, O=Google, OU=Enterprise, CN=Enterprise Subordinate CA
        Validity
            Not Before: May 25 11:43:42 2022 GMT
            Not After : Feb 18 11:43:42 2027 GMT
        Subject: C=US, O=Google, OU=Enterprise, CN=certserver.domain.com
        Subject Public Key Info:
            Public Key Algorithm: rsaEncryption
                RSA Public-Key: (2048 bit)
                Modulus:
                    00:c6:fd:c3:e6:ce:91:1d:63:57:ab:eb:87:38:c1:
                    33:bd:15:db:a1:5c:c7:9a:3f:30:fa:a6:75:1d:0d:
                    a5:ec:e5:92:ea:a0:d5:1b:3e:d3:2d:2c:11:2a:94:
                    b0:0d:b7:55:46:15:56:01:b9:47:bd:b8:fa:6b:27:
                    8f:b4:80:2e:4d:8d:4d:bb:14:11:14:87:6a:b5:c2:
                    73:4a:a3:fe:a8:b6:cd:f6:b7:de:5b:06:56:84:7b:
                    af:f0:70:92:49:03:f6:68:2b:30:80:1d:89:3c:f1:
                    f5:96:36:49:5d:a9:56:83:10:5d:3a:dd:58:04:e4:
                    f1:32:bf:bd:7c:17:93:b9:d1:81:bf:50:4a:c2:b3:
                    88:d1:4e:ca:05:df:26:ea:c1:d9:13:eb:e7:2e:e2:
                    64:8e:47:da:a6:20:64:4e:79:c2:b4:0f:b0:2c:ea:
                    2f:6b:10:a7:50:57:90:ca:93:ef:4a:40:7c:30:89:
                    fb:90:67:76:bf:e3:ef:07:db:9f:fe:91:8b:8d:35:
                    4f:91:9f:13:af:54:6b:03:fb:43:f8:65:46:1c:c9:
                    d3:83:bd:6d:f3:1b:6e:b1:3f:15:a0:6b:d9:bd:bd:
                    bb:f1:44:a1:0e:08:72:f6:01:d1:b9:55:b8:d7:cb:
                    bd:9e:8b:c4:1a:81:c0:d3:c6:a8:84:e4:31:92:0f:
                    c9:cd
                Exponent: 65537 (0x10001)
        X509v3 extensions:
            X509v3 Key Usage: critical
                Digital Signature
            X509v3 Basic Constraints: 
                CA:FALSE
            X509v3 Extended Key Usage: 
                TLS Web Server Authentication
            X509v3 Subject Key Identifier: 
                6F:09:0F:C1:6C:41:D1:6A:B2:90:0D:16:48:A1:0B:3C:80:1C:89:82
            X509v3 Authority Key Identifier: 
                keyid:65:11:BD:CE:06:7C:D4:7C:74:7F:34:3F:F4:83:4A:68:7D:F9:E0:76

            Authority Information Access: 
                CA Issuers - URI:http://pki.esodemoapp2.com/ca/tls-ca.cer

            X509v3 CRL Distribution Points: 

                Full Name:
                  URI:http://pki.esodemoapp2.com/ca/tls-ca.crl

            X509v3 Subject Alternative Name: 
                DNS:certserver.domain.com
    Signature Algorithm: sha256WithRSAEncryption
         c2:82:85:c7:5f:de:ca:7f:8d:fe:ac:e3:a5:af:4d:ea:be:cd:
         10:1d:4f:2e:87:bf:ce:ab:78:a7:23:a2:5b:09:c9:a0:1a:71:
         73:5b:ed:89:04:f3:7b:aa:61:cc:ac:9b:e7:13:f8:ee:ce:95:
         4d:93:d0:a9:3e:4d:a1:be:51:33:52:3b:ed:8c:75:93:e6:b1:
         be:50:06:ac:94:52:92:88:8a:b9:c9:1d:32:63:e7:5f:e2:5c:
         62:e2:f0:ef:99:6d:da:6b:35:65:f3:76:17:7c:28:d2:a2:cb:
         64:0c:97:83:b5:32:d8:a9:54:20:77:6a:b4:df:97:48:46:f5:
         d4:d1:3f:9e:18:00:fe:1c:8b:b9:4c:21:ee:a0:2a:68:40:80:
         cb:d9:45:32:3d:4c:bc:e2:4d:ac:eb:f9:2e:d0:99:92:77:4d:
         20:ee:0f:62:63:47:23:fd:45:9d:cd:61:c5:3d:02:55:ee:bf:
         3d:e7:45:42:db:73:5d:96:4c:0d:48:8f:15:fd:24:22:49:8b:
         ce:ee:11:c7:39:9c:5d:d4:6b:a0:f1:c6:0e:f2:76:2a:bb:6b:
         0c:ee:35:e6:6e:a1:0a:22:32:51:cf:df:6b:2b:79:08:37:a9:
         da:a6:1f:5b:84:a0:d6:67:30:83:18:23:bd:32:38:5b:74:b7:
         60:b9:01:c2
-----BEGIN CERTIFICATE-----
MIIEPjCCAyagAwIBAgIBAzANBgkqhkiG9w0BAQsFADBXMQswCQYDVQQGEwJVUzEP
MA0GA1UECgwGR29vZ2xlMRMwEQYDVQQLDApFbnRlcnByaXNlMSIwIAYDVQQDDBlF
bnRlcnByaXNlIFN1Ym9yZGluYXRlIENBMB4XDTIyMDUyNTExNDM0MloXDTI3MDIx
ODExNDM0MlowUzELMAkGA1UEBhMCVVMxDzANBgNVBAoMBkdvb2dsZTETMBEGA1UE
CwwKRW50ZXJwcmlzZTEeMBwGA1UEAwwVY2VydHNlcnZlci5kb21haW4uY29tMIIB
IjANBgkqhkiG9w0BAQEFAAOCAQ8AMIIBCgKCAQEAxv3D5s6RHWNXq+uHOMEzvRXb
oVzHmj8w+qZ1HQ2l7OWS6qDVGz7TLSwRKpSwDbdVRhVWAblHvbj6ayePtIAuTY1N
uxQRFIdqtcJzSqP+qLbN9rfeWwZWhHuv8HCSSQP2aCswgB2JPPH1ljZJXalWgxBd
Ot1YBOTxMr+9fBeTudGBv1BKwrOI0U7KBd8m6sHZE+vnLuJkjkfapiBkTnnCtA+w
LOovaxCnUFeQypPvSkB8MIn7kGd2v+PvB9uf/pGLjTVPkZ8Tr1RrA/tD+GVGHMnT
g71t8xtusT8VoGvZvb278UShDghy9gHRuVW418u9novEGoHA08aohOQxkg/JzQID
AQABo4IBFzCCARMwDgYDVR0PAQH/BAQDAgeAMAkGA1UdEwQCMAAwEwYDVR0lBAww
CgYIKwYBBQUHAwEwHQYDVR0OBBYEFG8JD8FsQdFqspANFkihCzyAHImCMB8GA1Ud
IwQYMBaAFGURvc4GfNR8dH80P/SDSmh9+eB2MEQGCCsGAQUFBwEBBDgwNjA0Bggr
BgEFBQcwAoYoaHR0cDovL3BraS5lc29kZW1vYXBwMi5jb20vY2EvdGxzLWNhLmNl
cjA5BgNVHR8EMjAwMC6gLKAqhihodHRwOi8vcGtpLmVzb2RlbW9hcHAyLmNvbS9j
YS90bHMtY2EuY3JsMCAGA1UdEQQZMBeCFWNlcnRzZXJ2ZXIuZG9tYWluLmNvbTAN
BgkqhkiG9w0BAQsFAAOCAQEAwoKFx1/eyn+N/qzjpa9N6r7NEB1PLoe/zqt4pyOi
WwnJoBpxc1vtiQTze6phzKyb5xP47s6VTZPQqT5Nob5RM1I77Yx1k+axvlAGrJRS
koiKuckdMmPnX+JcYuLw75lt2ms1ZfN2F3wo0qLLZAyXg7Uy2KlUIHdqtN+XSEb1
1NE/nhgA/hyLuUwh7qAqaECAy9lFMj1MvOJNrOv5LtCZkndNIO4PYmNHI/1Fnc1h
xT0CVe6/PedFQttzXZZMDUiPFf0kIkmLzu4RxzmcXdRroPHGDvJ2KrtrDO415m6h
CiIyUc/fayt5CDep2qYfW4Sg1mcwgxgjvTI4W3S3YLkBwg==
-----END CERTIFICATE-----
