Certificate:
    Data:
        Version: 3 (0x2)
        Serial Number: 4 (0x4)
        Signature Algorithm: sha256WithRSAEncryption
        Issuer: C=US, O=Google, OU=Enterprise, CN=Enterprise Subordinate CA
        Validity
            Not Before: May 25 11:44:41 2022 GMT
            Not After : Feb 18 11:44:41 2027 GMT
        Subject: C=US, O=Google, OU=Enterprise, CN=client@domain.com
        Subject Public Key Info:
            Public Key Algorithm: rsaEncryption
                RSA Public-Key: (2048 bit)
                Modulus:
                    00:c5:3a:c0:b8:e5:8d:77:2d:99:ae:ac:a0:43:d9:
                    14:25:20:69:55:ad:04:9a:9a:ea:eb:02:48:eb:c8:
                    ff:ac:55:72:f0:5d:c6:df:a6:ec:73:a0:8b:78:a2:
                    14:a8:85:4a:ca:47:2c:f5:ca:c6:63:a5:24:91:75:
                    ff:2b:cc:2b:0a:0f:47:11:0c:25:89:05:9c:b4:78:
                    c0:99:f0:a7:6c:89:d9:6a:ed:31:be:9f:b0:fa:cb:
                    a3:a4:bd:3b:85:12:96:dd:e4:a9:38:a3:08:88:a5:
                    76:bd:45:1a:22:67:e5:b2:4e:97:8e:48:10:86:b4:
                    bc:8e:54:6c:b5:7d:61:21:64:6c:a7:b3:4b:c3:85:
                    7a:c7:a6:44:8f:45:65:01:2b:0f:34:70:cb:f2:9c:
                    f1:ea:41:9d:97:0b:20:a5:de:29:6d:59:dc:d6:04:
                    0d:54:31:d6:a4:77:b7:73:b1:4d:65:fb:21:55:eb:
                    85:c3:bb:b6:d9:73:b2:a1:c3:01:c0:f2:f5:ae:56:
                    df:2d:0d:f7:09:1f:46:09:5e:39:d6:1a:5c:40:19:
                    2f:26:22:87:db:99:f8:d5:86:96:de:f4:98:e8:a1:
                    8c:65:87:a5:3a:4b:e2:6c:44:0e:2e:be:be:ae:fd:
                    05:d4:b7:22:3b:97:6c:02:87:68:2d:c4:81:d5:cc:
                    73:e9
                Exponent: 65537 (0x10001)
        X509v3 extensions:
            X509v3 Key Usage: critical
                Digital Signature
            X509v3 Basic Constraints: 
                CA:FALSE
            X509v3 Extended Key Usage: 
                TLS Web Client Authentication
            X509v3 Subject Key Identifier: 
                CC:92:16:37:BE:43:4C:7B:4E:7E:3C:F8:13:EA:73:94:BA:BF:15:48
            X509v3 Authority Key Identifier: 
                keyid:65:11:BD:CE:06:7C:D4:7C:74:7F:34:3F:F4:83:4A:68:7D:F9:E0:76

            Authority Information Access: 
                CA Issuers - URI:http://pki.esodemoapp2.com/ca/tls-ca.cer

            X509v3 CRL Distribution Points: 

                Full Name:
                  URI:http://pki.esodemoapp2.com/ca/tls-ca.crl

            X509v3 Subject Alternative Name: 
                <EMPTY>

    Signature Algorithm: sha256WithRSAEncryption
         55:6a:75:34:c4:dc:ff:cb:69:b1:17:06:de:c1:d0:fe:89:ed:
         46:1e:66:cc:6b:61:16:41:50:23:93:74:fd:ee:b5:7a:09:69:
         0b:7a:86:ec:50:51:1c:22:2d:ba:9f:91:cb:00:35:e5:be:0f:
         39:c7:72:b8:d1:ec:f6:53:c4:7e:4f:39:84:67:a2:76:3c:32:
         96:d6:42:93:33:04:48:11:b1:81:28:f2:3f:54:24:fa:9e:e9:
         2c:3a:2d:4f:97:80:41:e5:d8:92:38:f2:f2:6c:70:f4:6c:36:
         c7:b0:fa:95:5d:f1:0d:e2:eb:a5:d3:0c:5b:0b:ea:37:be:fb:
         3d:d3:20:3d:00:95:18:87:9f:87:f1:43:7b:6d:cb:f4:7d:d5:
         10:4b:2f:f2:c1:48:f4:94:23:94:28:c5:2e:64:64:ef:61:10:
         4a:57:31:de:9c:7c:fc:78:0c:2d:d9:22:98:d6:c9:31:25:20:
         e4:1c:1d:eb:cb:fa:84:99:b3:97:ac:df:86:de:12:29:2e:1d:
         bc:4c:75:be:35:9e:9e:59:36:84:07:ae:ae:86:d8:3d:69:bf:
         ce:ac:78:78:c8:a6:39:a9:25:4a:a8:ec:f2:a9:ae:8b:72:98:
         68:ff:2c:89:fc:7f:fe:a8:e1:f4:0b:2b:c8:02:f4:a7:11:a0:
         3e:16:18:59
-----BEGIN CERTIFICATE-----
MIIEITCCAwmgAwIBAgIBBDANBgkqhkiG9w0BAQsFADBXMQswCQYDVQQGEwJVUzEP
MA0GA1UECgwGR29vZ2xlMRMwEQYDVQQLDApFbnRlcnByaXNlMSIwIAYDVQQDDBlF
bnRlcnByaXNlIFN1Ym9yZGluYXRlIENBMB4XDTIyMDUyNTExNDQ0MVoXDTI3MDIx
ODExNDQ0MVowTzELMAkGA1UEBhMCVVMxDzANBgNVBAoMBkdvb2dsZTETMBEGA1UE
CwwKRW50ZXJwcmlzZTEaMBgGA1UEAwwRY2xpZW50QGRvbWFpbi5jb20wggEiMA0G
CSqGSIb3DQEBAQUAA4IBDwAwggEKAoIBAQDFOsC45Y13LZmurKBD2RQlIGlVrQSa
murrAkjryP+sVXLwXcbfpuxzoIt4ohSohUrKRyz1ysZjpSSRdf8rzCsKD0cRDCWJ
BZy0eMCZ8Kdsidlq7TG+n7D6y6OkvTuFEpbd5Kk4owiIpXa9RRoiZ+WyTpeOSBCG
tLyOVGy1fWEhZGyns0vDhXrHpkSPRWUBKw80cMvynPHqQZ2XCyCl3iltWdzWBA1U
Mdakd7dzsU1l+yFV64XDu7bZc7KhwwHA8vWuVt8tDfcJH0YJXjnWGlxAGS8mIofb
mfjVhpbe9JjooYxlh6U6S+JsRA4uvr6u/QXUtyI7l2wCh2gtxIHVzHPpAgMBAAGj
gf8wgfwwDgYDVR0PAQH/BAQDAgeAMAkGA1UdEwQCMAAwEwYDVR0lBAwwCgYIKwYB
BQUHAwIwHQYDVR0OBBYEFMySFje+Q0x7Tn48+BPqc5S6vxVIMB8GA1UdIwQYMBaA
FGURvc4GfNR8dH80P/SDSmh9+eB2MEQGCCsGAQUFBwEBBDgwNjA0BggrBgEFBQcw
AoYoaHR0cDovL3BraS5lc29kZW1vYXBwMi5jb20vY2EvdGxzLWNhLmNlcjA5BgNV
HR8EMjAwMC6gLKAqhihodHRwOi8vcGtpLmVzb2RlbW9hcHAyLmNvbS9jYS90bHMt
Y2EuY3JsMAkGA1UdEQQCMAAwDQYJKoZIhvcNAQELBQADggEBAFVqdTTE3P/LabEX
Bt7B0P6J7UYeZsxrYRZBUCOTdP3utXoJaQt6huxQURwiLbqfkcsANeW+DznHcrjR
7PZTxH5POYRnonY8MpbWQpMzBEgRsYEo8j9UJPqe6Sw6LU+XgEHl2JI48vJscPRs
Nsew+pVd8Q3i66XTDFsL6je++z3TID0AlRiHn4fxQ3tty/R91RBLL/LBSPSUI5Qo
xS5kZO9hEEpXMd6cfPx4DC3ZIpjWyTElIOQcHevL+oSZs5es34beEikuHbxMdb41
np5ZNoQHrq6G2D1pv86seHjIpjmpJUqo7PKprotymGj/LIn8f/6o4fQLK8gC9KcR
oD4WGFk=
-----END CERTIFICATE-----
