Certificate:
    Data:
        Version: 3 (0x2)
        Serial Number: 2 (0x2)
        Signature Algorithm: sha256WithRSAEncryption
        Issuer: C=US, O=Google, OU=Enterprise, CN=Enterprise Subordinate CA
        Validity
            Not Before: May 25 11:43:01 2022 GMT
            Not After : Feb 18 11:43:01 2027 GMT
        Subject: C=US, O=Google, OU=Enterprise, CN=http.domain.com
        Subject Public Key Info:
            Public Key Algorithm: rsaEncryption
                RSA Public-Key: (2048 bit)
                Modulus:
                    00:e1:5b:3e:82:60:03:d8:b1:c6:75:eb:6a:c4:07:
                    a5:f4:56:be:0b:63:df:e5:06:4c:b0:a4:2f:ec:cf:
                    49:46:80:88:72:4c:50:e2:c0:2c:35:2c:35:aa:ad:
                    fe:a7:8e:99:08:67:4d:84:06:82:f7:32:a8:f5:e2:
                    7c:f1:e6:a5:29:9c:ca:55:cf:49:20:96:00:8d:31:
                    79:f2:79:33:9b:21:9a:a7:0a:a3:3e:d5:20:cf:98:
                    7f:48:94:80:dc:3f:ab:9f:4e:ba:ea:ba:5a:e8:82:
                    f1:b8:da:47:00:d6:a7:0e:1d:9d:7d:86:e3:e9:49:
                    b8:f4:e0:b1:77:27:a5:4d:da:bc:c8:28:19:00:ee:
                    d7:55:8d:c2:55:f5:c5:0a:3a:d8:bb:05:41:1e:56:
                    cc:32:9a:16:80:a4:5c:0f:cc:54:f3:fd:40:28:92:
                    db:4b:d9:54:94:8d:10:52:d3:da:b5:c0:5e:b2:01:
                    09:d6:24:9b:80:96:7f:08:ec:49:2a:80:e7:a9:ed:
                    b9:20:ef:44:f6:01:a1:7c:69:66:07:b9:b3:8f:9f:
                    21:2c:74:e6:bd:d4:a9:a6:de:9c:d8:1f:8f:f9:ac:
                    02:e8:93:36:e0:29:91:5a:a5:41:fc:6c:11:10:d5:
                    b7:10:11:92:4d:4d:52:dd:16:20:fa:42:53:b0:7f:
                    85:2f
                Exponent: 65537 (0x10001)
        X509v3 extensions:
            X509v3 Key Usage: critical
                Digital Signature
            X509v3 Basic Constraints: 
                CA:FALSE
            X509v3 Extended Key Usage: 
                TLS Web Server Authentication
            X509v3 Subject Key Identifier: 
                8B:8A:11:49:03:F9:F5:16:E3:BF:15:82:2D:60:0F:C0:9D:46:E8:7B
            X509v3 Authority Key Identifier: 
                keyid:65:11:BD:CE:06:7C:D4:7C:74:7F:34:3F:F4:83:4A:68:7D:F9:E0:76

            Authority Information Access: 
                CA Issuers - URI:http://pki.esodemoapp2.com/ca/tls-ca.cer

            X509v3 CRL Distribution Points: 

                Full Name:
                  URI:http://pki.esodemoapp2.com/ca/tls-ca.crl

            X509v3 Subject Alternative Name: 
                DNS:http.domain.com
    Signature Algorithm: sha256WithRSAEncryption
         c8:78:ff:59:83:48:50:f0:d6:51:f3:13:44:ea:28:be:34:83:
         36:39:e4:5b:9b:85:7b:11:16:a7:7b:b6:c4:2f:a9:aa:06:03:
         88:35:62:76:e1:c5:05:72:9d:92:c4:b5:44:c1:ac:dd:cc:fc:
         05:ec:9c:4b:bb:5d:37:1e:12:ba:35:81:ff:b6:34:14:b9:97:
         f1:0b:0c:c5:68:d9:c7:11:6b:fb:ae:df:e4:cc:03:ef:f9:72:
         36:72:3a:53:42:9f:d3:10:0d:51:df:29:2d:1b:f0:d2:a5:5a:
         57:6a:bc:b4:02:a3:65:a3:b1:9a:c8:42:48:bc:00:2b:cd:e6:
         d9:e1:a7:aa:23:d7:9a:e4:e6:e3:85:6f:31:72:6f:b0:ef:8e:
         db:35:f4:1b:22:62:98:6c:8a:1e:56:16:30:6b:d2:3b:c2:07:
         19:00:5c:94:da:ad:0d:76:da:83:40:e0:75:f9:0c:bf:28:26:
         a3:fd:cd:0f:67:79:52:d6:b2:fd:75:06:2f:b8:ef:30:8a:bb:
         2e:5e:6e:fb:42:76:83:d0:61:d3:34:e1:fc:39:4f:fe:27:34:
         61:a9:50:f3:c3:ce:03:ec:bb:f9:97:7c:09:2f:d8:64:95:7d:
         ec:cb:07:12:08:87:fc:b5:c8:93:75:5d:79:4e:05:ed:25:f7:
         af:56:d1:8f
-----BEGIN CERTIFICATE-----
MIIEMjCCAxqgAwIBAgIBAjANBgkqhkiG9w0BAQsFADBXMQswCQYDVQQGEwJVUzEP
MA0GA1UECgwGR29vZ2xlMRMwEQYDVQQLDApFbnRlcnByaXNlMSIwIAYDVQQDDBlF
bnRlcnByaXNlIFN1Ym9yZGluYXRlIENBMB4XDTIyMDUyNTExNDMwMVoXDTI3MDIx
ODExNDMwMVowTTELMAkGA1UEBhMCVVMxDzANBgNVBAoMBkdvb2dsZTETMBEGA1UE
CwwKRW50ZXJwcmlzZTEYMBYGA1UEAwwPaHR0cC5kb21haW4uY29tMIIBIjANBgkq
hkiG9w0BAQEFAAOCAQ8AMIIBCgKCAQEA4Vs+gmAD2LHGdetqxAel9Fa+C2Pf5QZM
sKQv7M9JRoCIckxQ4sAsNSw1qq3+p46ZCGdNhAaC9zKo9eJ88ealKZzKVc9JIJYA
jTF58nkzmyGapwqjPtUgz5h/SJSA3D+rn0666rpa6ILxuNpHANanDh2dfYbj6Um4
9OCxdyelTdq8yCgZAO7XVY3CVfXFCjrYuwVBHlbMMpoWgKRcD8xU8/1AKJLbS9lU
lI0QUtPatcBesgEJ1iSbgJZ/COxJKoDnqe25IO9E9gGhfGlmB7mzj58hLHTmvdSp
pt6c2B+P+awC6JM24CmRWqVB/GwRENW3EBGSTU1S3RYg+kJTsH+FLwIDAQABo4IB
ETCCAQ0wDgYDVR0PAQH/BAQDAgeAMAkGA1UdEwQCMAAwEwYDVR0lBAwwCgYIKwYB
BQUHAwEwHQYDVR0OBBYEFIuKEUkD+fUW478Vgi1gD8CdRuh7MB8GA1UdIwQYMBaA
FGURvc4GfNR8dH80P/SDSmh9+eB2MEQGCCsGAQUFBwEBBDgwNjA0BggrBgEFBQcw
AoYoaHR0cDovL3BraS5lc29kZW1vYXBwMi5jb20vY2EvdGxzLWNhLmNlcjA5BgNV
HR8EMjAwMC6gLKAqhihodHRwOi8vcGtpLmVzb2RlbW9hcHAyLmNvbS9jYS90bHMt
Y2EuY3JsMBoGA1UdEQQTMBGCD2h0dHAuZG9tYWluLmNvbTANBgkqhkiG9w0BAQsF
AAOCAQEAyHj/WYNIUPDWUfMTROoovjSDNjnkW5uFexEWp3u2xC+pqgYDiDViduHF
BXKdksS1RMGs3cz8BeycS7tdNx4SujWB/7Y0FLmX8QsMxWjZxxFr+67f5MwD7/ly
NnI6U0Kf0xANUd8pLRvw0qVaV2q8tAKjZaOxmshCSLwAK83m2eGnqiPXmuTm44Vv
MXJvsO+O2zX0GyJimGyKHlYWMGvSO8IHGQBclNqtDXbag0DgdfkMvygmo/3ND2d5
Utay/XUGL7jvMIq7Ll5u+0J2g9Bh0zTh/DlP/ic0YalQ88POA+y7+Zd8CS/YZJV9
7MsHEgiH/LXIk3VdeU4F7SX3r1bRjw==
-----END CERTIFICATE-----
