Certificate:
    Data:
        Version: 3 (0x2)
        Serial Number: 1 (0x1)
        Signature Algorithm: sha256WithRSAEncryption
        Issuer: C=US, O=Google, OU=Enterprise, CN=Enterprise Subordinate CA
        Validity
            Not Before: May 25 11:42:11 2022 GMT
            Not After : Feb 18 11:42:11 2027 GMT
        Subject: C=US, O=Google, OU=Enterprise, CN=ocsp.domain.com
        Subject Public Key Info:
            Public Key Algorithm: rsaEncryption
                RSA Public-Key: (2048 bit)
                Modulus:
                    00:c3:d3:df:d3:b7:82:28:1e:44:9b:81:18:19:59:
                    cb:32:5c:ba:9a:b9:a4:fb:b6:d7:46:f6:e6:d0:7b:
                    79:eb:39:bd:2d:0b:9c:54:cb:ff:76:a0:86:9a:c9:
                    59:a0:22:12:6d:16:d1:c6:0d:88:b6:e2:93:5c:95:
                    e7:85:a6:4d:6d:a2:85:f5:62:81:3a:0e:85:4a:1a:
                    f5:b1:56:ec:b5:b2:e2:be:7d:a4:dc:19:16:24:29:
                    0f:cb:26:1d:11:0a:b4:01:74:c6:f0:4d:8f:ba:de:
                    db:43:ab:b4:e6:6f:f2:9d:c9:9d:4b:ce:57:09:c7:
                    58:8d:41:e0:f5:55:71:b8:97:11:06:16:52:74:8b:
                    98:60:2c:28:0c:0f:c5:33:0c:24:de:60:cc:e2:65:
                    1c:54:9a:1a:02:c4:36:31:db:7d:00:dd:1e:7c:14:
                    1a:ce:b4:ee:3e:45:38:a7:30:31:e1:5e:75:7f:3f:
                    bb:b2:41:7e:69:86:28:92:48:94:68:ed:13:0f:76:
                    9b:13:53:0c:69:06:36:6d:f5:d3:15:05:7d:f2:52:
                    21:7f:92:d5:36:6f:4a:93:df:e0:67:2f:a7:0c:61:
                    9c:8b:99:ba:92:a5:b4:e3:70:d6:50:1e:a8:bd:1f:
                    08:8c:56:7f:f4:32:63:16:19:59:dc:7f:95:ea:bd:
                    72:89
                Exponent: 65537 (0x10001)
        X509v3 extensions:
            X509v3 Key Usage: critical
                Digital Signature
            X509v3 Basic Constraints: 
                CA:FALSE
            X509v3 Extended Key Usage: 
                OCSP Signing
            X509v3 Subject Key Identifier: 
                1C:49:6F:B6:A9:5F:C9:97:42:74:3D:15:9F:E0:35:FA:F4:3A:DF:C7
            X509v3 Authority Key Identifier: 
                keyid:65:11:BD:CE:06:7C:D4:7C:74:7F:34:3F:F4:83:4A:68:7D:F9:E0:76

            Authority Information Access: 
                CA Issuers - URI:http://pki.esodemoapp2.com/ca/tls-ca.cer

            X509v3 CRL Distribution Points: 

                Full Name:
                  URI:http://pki.esodemoapp2.com/ca/tls-ca.crl

            X509v3 Subject Alternative Name: 
                DNS:ocsp.domain.com
    Signature Algorithm: sha256WithRSAEncryption
         74:82:14:7a:23:9e:6a:62:eb:f0:25:c8:09:88:4a:5b:62:45:
         a5:90:09:ad:db:61:7c:37:4e:fc:b0:25:2c:0e:b4:fd:97:6f:
         0c:c1:19:5d:0a:83:9b:6c:db:72:b9:e2:3d:33:b7:8c:33:3d:
         d5:09:be:2c:63:5d:4a:d7:06:32:2a:44:99:bd:df:fe:66:34:
         27:e9:02:8d:35:23:a5:28:bb:ef:65:76:ba:c2:09:c2:79:c5:
         7e:3f:62:d5:97:65:61:8d:98:83:ac:8d:1c:ce:40:b3:f6:c1:
         1c:4c:51:84:93:53:43:21:33:4d:ae:2d:58:76:22:d8:ea:f0:
         df:d5:ec:8d:42:de:e5:46:a5:2a:7e:17:ed:6e:99:2f:6c:fa:
         ca:93:5c:3f:0e:94:74:1f:6e:80:f9:ad:3b:15:83:ba:d6:d1:
         ef:d1:59:dd:64:94:4c:82:ed:3c:d4:31:35:5d:2c:3a:fb:e2:
         02:9e:bf:f1:66:1b:39:87:cb:42:32:bf:b8:41:d8:30:c0:48:
         4a:d5:81:34:ac:e3:6e:95:15:a3:22:8d:af:7e:16:9f:df:e8:
         2a:e1:41:ce:21:12:30:5e:f7:84:51:c4:a2:cd:80:d3:85:a4:
         6a:e4:17:36:54:41:b6:6b:c0:85:8b:e2:5d:ff:64:6e:ea:b4:
         ee:b9:2a:55
-----BEGIN CERTIFICATE-----
MIIEMjCCAxqgAwIBAgIBATANBgkqhkiG9w0BAQsFADBXMQswCQYDVQQGEwJVUzEP
MA0GA1UECgwGR29vZ2xlMRMwEQYDVQQLDApFbnRlcnByaXNlMSIwIAYDVQQDDBlF
bnRlcnByaXNlIFN1Ym9yZGluYXRlIENBMB4XDTIyMDUyNTExNDIxMVoXDTI3MDIx
ODExNDIxMVowTTELMAkGA1UEBhMCVVMxDzANBgNVBAoMBkdvb2dsZTETMBEGA1UE
CwwKRW50ZXJwcmlzZTEYMBYGA1UEAwwPb2NzcC5kb21haW4uY29tMIIBIjANBgkq
hkiG9w0BAQEFAAOCAQ8AMIIBCgKCAQEAw9Pf07eCKB5Em4EYGVnLMly6mrmk+7bX
Rvbm0Ht56zm9LQucVMv/dqCGmslZoCISbRbRxg2ItuKTXJXnhaZNbaKF9WKBOg6F
Shr1sVbstbLivn2k3BkWJCkPyyYdEQq0AXTG8E2Put7bQ6u05m/yncmdS85XCcdY
jUHg9VVxuJcRBhZSdIuYYCwoDA/FMwwk3mDM4mUcVJoaAsQ2Mdt9AN0efBQazrTu
PkU4pzAx4V51fz+7skF+aYYokkiUaO0TD3abE1MMaQY2bfXTFQV98lIhf5LVNm9K
k9/gZy+nDGGci5m6kqW043DWUB6ovR8IjFZ/9DJjFhlZ3H+V6r1yiQIDAQABo4IB
ETCCAQ0wDgYDVR0PAQH/BAQDAgeAMAkGA1UdEwQCMAAwEwYDVR0lBAwwCgYIKwYB
BQUHAwkwHQYDVR0OBBYEFBxJb7apX8mXQnQ9FZ/gNfr0Ot/HMB8GA1UdIwQYMBaA
FGURvc4GfNR8dH80P/SDSmh9+eB2MEQGCCsGAQUFBwEBBDgwNjA0BggrBgEFBQcw
AoYoaHR0cDovL3BraS5lc29kZW1vYXBwMi5jb20vY2EvdGxzLWNhLmNlcjA5BgNV
HR8EMjAwMC6gLKAqhihodHRwOi8vcGtpLmVzb2RlbW9hcHAyLmNvbS9jYS90bHMt
Y2EuY3JsMBoGA1UdEQQTMBGCD29jc3AuZG9tYWluLmNvbTANBgkqhkiG9w0BAQsF
AAOCAQEAdIIUeiOeamLr8CXICYhKW2JFpZAJrdthfDdO/LAlLA60/ZdvDMEZXQqD
m2zbcrniPTO3jDM91Qm+LGNdStcGMipEmb3f/mY0J+kCjTUjpSi772V2usIJwnnF
fj9i1ZdlYY2Yg6yNHM5As/bBHExRhJNTQyEzTa4tWHYi2Orw39XsjULe5UalKn4X
7W6ZL2z6ypNcPw6UdB9ugPmtOxWDutbR79FZ3WSUTILtPNQxNV0sOvviAp6/8WYb
OYfLQjK/uEHYMMBIStWBNKzjbpUVoyKNr34Wn9/oKuFBziESMF73hFHEos2A04Wk
auQXNlRBtmvAhYviXf9kbuq07rkqVQ==
-----END CERTIFICATE-----
