Certificate:
    Data:
        Version: 3 (0x2)
        Serial Number: 2 (0x2)
        Signature Algorithm: sha256WithRSAEncryption
        Issuer: C=US, O=Google, OU=Enterprise, CN=Enterprise Root CA
        Validity
            Not Before: May 25 11:39:20 2022 GMT
            Not After : May 24 11:39:20 2032 GMT
        Subject: C=US, O=Google, OU=Enterprise, CN=Enterprise Subordinate CA
        Subject Public Key Info:
            Public Key Algorithm: rsaEncryption
                RSA Public-Key: (2048 bit)
                Modulus:
                    00:d6:65:9f:c1:3c:c5:19:a6:60:7a:1b:dc:ed:1c:
                    f3:e4:6a:b0:d0:15:0d:4c:1b:99:c0:47:5e:2f:55:
                    25:26:39:3a:49:2e:bd:e9:0d:b9:df:56:03:a2:37:
                    f0:50:e0:e7:9a:fc:37:7e:eb:7a:eb:3c:20:36:83:
                    e3:65:b9:41:0a:1b:de:c2:ab:c3:e9:3a:9e:8d:48:
                    bc:e3:53:03:2e:4f:32:24:77:64:11:17:f4:ec:a6:
                    0e:ff:36:a8:3f:76:be:75:94:eb:e4:7d:e7:49:2a:
                    e5:a6:57:52:da:2a:cc:a2:86:81:c9:e8:fb:a7:f3:
                    e2:39:47:d1:a9:53:0e:5d:f2:28:64:fc:31:72:07:
                    99:be:fe:77:ab:9d:75:dd:5f:7f:65:37:85:2f:cd:
                    25:ea:2d:bc:e2:65:88:96:1a:5d:56:96:e9:78:02:
                    dc:74:d0:8f:b7:b8:69:6b:a7:10:27:93:3d:05:27:
                    02:12:1f:ac:45:cc:ed:92:5b:d3:f6:c4:76:f7:14:
                    f3:12:7a:76:73:d6:de:55:3f:2f:34:fb:3b:9e:91:
                    49:8c:e5:4e:b3:4d:8b:39:ab:fc:2d:cc:f7:a5:68:
                    44:70:2f:11:d9:60:ee:6f:aa:3e:18:15:1b:21:d3:
                    69:18:b1:51:f1:4d:20:e9:36:a7:5c:b9:3b:5f:f3:
                    54:a3
                Exponent: 65537 (0x10001)
        X509v3 extensions:
            X509v3 Key Usage: critical
                Certificate Sign, CRL Sign
            X509v3 Basic Constraints: critical
                CA:TRUE, pathlen:0
            X509v3 Subject Key Identifier: 
                65:11:BD:CE:06:7C:D4:7C:74:7F:34:3F:F4:83:4A:68:7D:F9:E0:76
            X509v3 Authority Key Identifier: 
                keyid:A9:DE:EE:20:0B:8E:F3:9D:C2:30:BE:20:15:EE:FA:67:BB:24:6B:7F

            Authority Information Access: 
                CA Issuers - URI:http://pki.esodemoapp2.com/ca/root-ca.cer

            X509v3 CRL Distribution Points: 

                Full Name:
                  URI:http://pki.esodemoapp2.com/ca/root-ca.crl

    Signature Algorithm: sha256WithRSAEncryption
         13:62:37:8d:35:5b:96:bc:78:6b:07:6e:d6:5a:47:91:74:36:
         13:52:71:c5:eb:76:29:2d:62:69:8e:18:b8:dc:ce:2d:5b:1a:
         74:3d:ab:3f:d4:a3:e4:38:69:79:c0:d7:1f:bb:8a:f8:99:bd:
         d4:06:a4:86:8a:1a:24:5c:a5:50:c5:96:01:f3:19:3c:b0:27:
         fc:11:29:8e:0f:47:b6:b3:11:e1:67:9f:3f:3f:c0:53:c6:49:
         a8:3f:c6:4f:24:4d:11:09:74:f4:d0:03:1f:e2:d4:1e:05:f4:
         b8:aa:92:07:1b:9d:c4:17:7f:80:18:3a:71:02:31:bf:53:88:
         c2:f8:ac:f0:c2:33:f2:77:f5:74:7d:f4:bb:03:ff:2a:83:49:
         82:b5:d2:31:85:76:88:89:af:4f:6d:f8:e7:ce:99:40:ad:38:
         b9:a8:55:1c:fb:5d:c0:06:33:8a:6a:cf:8d:73:13:7c:0c:f1:
         a8:eb:b7:1f:9e:df:b8:ab:ec:c1:99:fe:2d:65:a6:06:bf:44:
         56:2b:6c:af:69:52:69:f3:c5:27:95:f5:cb:ff:28:25:0e:f9:
         66:fc:2b:a8:81:5b:fa:6f:5a:21:5e:54:96:e6:e7:c9:6e:c7:
         2b:ae:e6:29:aa:33:49:48:3e:de:e2:6c:ee:e8:83:6e:10:02:
         3a:d4:cb:91
-----BEGIN CERTIFICATE-----
MIIEDTCCAvWgAwIBAgIBAjANBgkqhkiG9w0BAQsFADBQMQswCQYDVQQGEwJVUzEP
MA0GA1UECgwGR29vZ2xlMRMwEQYDVQQLDApFbnRlcnByaXNlMRswGQYDVQQDDBJF
bnRlcnByaXNlIFJvb3QgQ0EwHhcNMjIwNTI1MTEzOTIwWhcNMzIwNTI0MTEzOTIw
WjBXMQswCQYDVQQGEwJVUzEPMA0GA1UECgwGR29vZ2xlMRMwEQYDVQQLDApFbnRl
cnByaXNlMSIwIAYDVQQDDBlFbnRlcnByaXNlIFN1Ym9yZGluYXRlIENBMIIBIjAN
BgkqhkiG9w0BAQEFAAOCAQ8AMIIBCgKCAQEA1mWfwTzFGaZgehvc7Rzz5Gqw0BUN
TBuZwEdeL1UlJjk6SS696Q2531YDojfwUODnmvw3fut66zwgNoPjZblBChvewqvD
6TqejUi841MDLk8yJHdkERf07KYO/zaoP3a+dZTr5H3nSSrlpldS2irMooaByej7
p/PiOUfRqVMOXfIoZPwxcgeZvv53q5113V9/ZTeFL80l6i284mWIlhpdVpbpeALc
dNCPt7hpa6cQJ5M9BScCEh+sRcztklvT9sR29xTzEnp2c9beVT8vNPs7npFJjOVO
s02LOav8Lcz3pWhEcC8R2WDub6o+GBUbIdNpGLFR8U0g6TanXLk7X/NUowIDAQAB
o4HqMIHnMA4GA1UdDwEB/wQEAwIBBjASBgNVHRMBAf8ECDAGAQH/AgEAMB0GA1Ud
DgQWBBRlEb3OBnzUfHR/ND/0g0poffngdjAfBgNVHSMEGDAWgBSp3u4gC47zncIw
viAV7vpnuyRrfzBFBggrBgEFBQcBAQQ5MDcwNQYIKwYBBQUHMAKGKWh0dHA6Ly9w
a2kuZXNvZGVtb2FwcDIuY29tL2NhL3Jvb3QtY2EuY2VyMDoGA1UdHwQzMDEwL6At
oCuGKWh0dHA6Ly9wa2kuZXNvZGVtb2FwcDIuY29tL2NhL3Jvb3QtY2EuY3JsMA0G
CSqGSIb3DQEBCwUAA4IBAQATYjeNNVuWvHhrB27WWkeRdDYTUnHF63YpLWJpjhi4
3M4tWxp0Pas/1KPkOGl5wNcfu4r4mb3UBqSGihokXKVQxZYB8xk8sCf8ESmOD0e2
sxHhZ58/P8BTxkmoP8ZPJE0RCXT00AMf4tQeBfS4qpIHG53EF3+AGDpxAjG/U4jC
+KzwwjPyd/V0ffS7A/8qg0mCtdIxhXaIia9PbfjnzplArTi5qFUc+13ABjOKas+N
cxN8DPGo67cfnt+4q+zBmf4tZaYGv0RWK2yvaVJp88UnlfXL/yglDvlm/CuogVv6
b1ohXlSW5ufJbscrruYpqjNJSD7e4mzu6INuEAI61MuR
-----END CERTIFICATE-----
