Certificate:
    Data:
        Version: 3 (0x2)
        Serial Number: 2 (0x2)
        Signature Algorithm: sha256WithRSAEncryption
        Issuer: C=US, O=Google, OU=Enterprise, CN=Enterprise Root CA
        Validity
            Not Before: May 25 11:39:20 2022 GMT
            Not After : May 24 11:39:20 2032 GMT
        Subject: C=US, O=Google, OU=Enterprise, CN=Enterprise Subordinate CA
        Subject Public Key Info:
            Public Key Algorithm: rsaEncryption
                RSA Public-Key: (2048 bit)
                Modulus:
                    00:d6:65:9f:c1:3c:c5:19:a6:60:7a:1b:dc:ed:1c:
                    f3:e4:6a:b0:d0:15:0d:4c:1b:99:c0:47:5e:2f:55:
                    25:26:39:3a:49:2e:bd:e9:0d:b9:df:56:03:a2:37:
                    f0:50:e0:e7:9a:fc:37:7e:eb:7a:eb:3c:20:36:83:
                    e3:65:b9:41:0a:1b:de:c2:ab:c3:e9:3a:9e:8d:48:
                    bc:e3:53:03:2e:4f:32:24:77:64:11:17:f4:ec:a6:
                    0e:ff:36:a8:3f:76:be:75:94:eb:e4:7d:e7:49:2a:
                    e5:a6:57:52:da:2a:cc:a2:86:81:c9:e8:fb:a7:f3:
                    e2:39:47:d1:a9:53:0e:5d:f2:28:64:fc:31:72:07:
                    99:be:fe:77:ab:9d:75:dd:5f:7f:65:37:85:2f:cd:
                    25:ea:2d:bc:e2:65:88:96:1a:5d:56:96:e9:78:02:
                    dc:74:d0:8f:b7:b8:69:6b:a7:10:27:93:3d:05:27:
                    02:12:1f:ac:45:cc:ed:92:5b:d3:f6:c4:76:f7:14:
                    f3:12:7a:76:73:d6:de:55:3f:2f:34:fb:3b:9e:91:
                    49:8c:e5:4e:b3:4d:8b:39:ab:fc:2d:cc:f7:a5:68:
                    44:70:2f:11:d9:60:ee:6f:aa:3e:18:15:1b:21:d3:
                    69:18:b1:51:f1:4d:20:e9:36:a7:5c:b9:3b:5f:f3:
                    54:a3
                Exponent: 65537 (0x10001)
        X509v3 extensions:
            X509v3 Key Usage: critical
                Certificate Sign, CRL Sign
            X509v3 Basic Constraints: critical
                CA:TRUE, pathlen:0
            X509v3 Subject Key Identifier: 
                65:11:BD:CE:06:7C:D4:7C:74:7F:34:3F:F4:83:4A:68:7D:F9:E0:76
            X509v3 Authority Key Identifier: 
                keyid:A9:DE:EE:20:0B:8E:F3:9D:C2:30:BE:20:15:EE:FA:67:BB:24:6B:7F

            Authority Information Access: 
                CA Issuers - URI:http://pki.esodemoapp2.com/ca/root-ca.cer

            X509v3 CRL Distribution Points: 

                Full Name:
                  URI:http://pki.esodemoapp2.com/ca/root-ca.crl

    Signature Algorithm: sha256WithRSAEncryption
         13:62:37:8d:35:5b:96:bc:78:6b:07:6e:d6:5a:47:91:74:36:
         13:52:71:c5:eb:76:29:2d:62:69:8e:18:b8:dc:ce:2d:5b:1a:
         74:3d:ab:3f:d4:a3:e4:38:69:79:c0:d7:1f:bb:8a:f8:99:bd:
         d4:06:a4:86:8a:1a:24:5c:a5:50:c5:96:01:f3:19:3c:b0:27:
         fc:11:29:8e:0f:47:b6:b3:11:e1:67:9f:3f:3f:c0:53:c6:49:
         a8:3f:c6:4f:24:4d:11:09:74:f4:d0:03:1f:e2:d4:1e:05:f4:
         b8:aa:92:07:1b:9d:c4:17:7f:80:18:3a:71:02:31:bf:53:88:
         c2:f8:ac:f0:c2:33:f2:77:f5:74:7d:f4:bb:03:ff:2a:83:49:
         82:b5:d2:31:85:76:88:89:af:4f:6d:f8:e7:ce:99:40:ad:38:
         b9:a8:55:1c:fb:5d:c0:06:33:8a:6a:cf:8d:73:13:7c:0c:f1:
         a8:eb:b7:1f:9e:df:b8:ab:ec:c1:99:fe:2d:65:a6:06:bf:44:
         56:2b:6c:af:69:52:69:f3:c5:27:95:f5:cb:ff:28:25:0e:f9:
         66:fc:2b:a8:81:5b:fa:6f:5a:21:5e:54:96:e6:e7:c9:6e:c7:
         2b:ae:e6:29:aa:33:49:48:3e:de:e2:6c:ee:e8:83:6e:10:02:
         3a:d4:cb:91
-----BEGIN CERTIFICATE-----
MIIEDTCCAvWgAwIBAgIBAjANBgkqhkiG9w0BAQsFADBQMQswCQYDVQQGEwJVUzEP
MA0GA1UECgwGR29vZ2xlMRMwEQYDVQQLDApFbnRlcnByaXNlMRswGQYDVQQDDBJF
bnRlcnByaXNlIFJvb3QgQ0EwHhcNMjIwNTI1MTEzOTIwWhcNMzIwNTI0MTEzOTIw
WjBXMQswCQYDVQQGEwJVUzEPMA0GA1UECgwGR29vZ2xlMRMwEQYDVQQLDApFbnRl
cnByaXNlMSIwIAYDVQQDDBlFbnRlcnByaXNlIFN1Ym9yZGluYXRlIENBMIIBIjAN
BgkqhkiG9w0BAQEFAAOCAQ8AMIIBCgKCAQEA1mWfwTzFGaZgehvc7Rzz5Gqw0BUN
TBuZwEdeL1UlJjk6SS696Q2531YDojfwUODnmvw3fut66zwgNoPjZblBChvewqvD
6TqejUi841MDLk8yJHdkERf07KYO/zaoP3a+dZTr5H3nSSrlpldS2irMooaByej7
p/PiOUfRqVMOXfIoZPwxcgeZvv53q5113V9/ZTeFL80l6i284mWIlhpdVpbpeALc
dNCPt7hpa6cQJ5M9BScCEh+sRcztklvT9sR29xTzEnp2c9beVT8vNPs7npFJjOVO
s02LOav8Lcz3pWhEcC8R2WDub6o+GBUbIdNpGLFR8U0g6TanXLk7X/NUowIDAQAB
o4HqMIHnMA4GA1UdDwEB/wQEAwIBBjASBgNVHRMBAf8ECDAGAQH/AgEAMB0GA1Ud
DgQWBBRlEb3OBnzUfHR/ND/0g0poffngdjAfBgNVHSMEGDAWgBSp3u4gC47zncIw
viAV7vpnuyRrfzBFBggrBgEFBQcBAQQ5MDcwNQYIKwYBBQUHMAKGKWh0dHA6Ly9w
a2kuZXNvZGVtb2FwcDIuY29tL2NhL3Jvb3QtY2EuY2VyMDoGA1UdHwQzMDEwL6At
oCuGKWh0dHA6Ly9wa2kuZXNvZGVtb2FwcDIuY29tL2NhL3Jvb3QtY2EuY3JsMA0G
CSqGSIb3DQEBCwUAA4IBAQATYjeNNVuWvHhrB27WWkeRdDYTUnHF63YpLWJpjhi4
3M4tWxp0Pas/1KPkOGl5wNcfu4r4mb3UBqSGihokXKVQxZYB8xk8sCf8ESmOD0e2
sxHhZ58/P8BTxkmoP8ZPJE0RCXT00AMf4tQeBfS4qpIHG53EF3+AGDpxAjG/U4jC
+KzwwjPyd/V0ffS7A/8qg0mCtdIxhXaIia9PbfjnzplArTi5qFUc+13ABjOKas+N
cxN8DPGo67cfnt+4q+zBmf4tZaYGv0RWK2yvaVJp88UnlfXL/yglDvlm/CuogVv6
b1ohXlSW5ufJbscrruYpqjNJSD7e4mzu6INuEAI61MuR
-----END CERTIFICATE-----
Certificate:
    Data:
        Version: 3 (0x2)
        Serial Number: 1 (0x1)
        Signature Algorithm: sha256WithRSAEncryption
        Issuer: C=US, O=Google, OU=Enterprise, CN=Enterprise Root CA
        Validity
            Not Before: May 25 11:37:48 2022 GMT
            Not After : May 24 11:37:48 2032 GMT
        Subject: C=US, O=Google, OU=Enterprise, CN=Enterprise Root CA
        Subject Public Key Info:
            Public Key Algorithm: rsaEncryption
                RSA Public-Key: (2048 bit)
                Modulus:
                    00:b5:89:90:2a:16:eb:76:08:92:20:68:9e:ce:5a:
                    dd:0a:d1:64:f9:5b:23:7c:1f:3d:3b:ef:bf:07:71:
                    d4:05:04:ab:38:55:85:30:bc:cd:26:46:3f:f1:16:
                    84:ce:b3:14:ae:27:df:b0:4b:83:ad:55:ca:db:cc:
                    ac:cd:45:67:89:bf:4d:99:06:14:98:fe:7c:88:ea:
                    18:88:23:b4:af:c1:01:a8:64:91:46:95:14:0f:fb:
                    f2:e5:21:84:c2:2c:cb:74:50:fc:7b:2c:90:b4:79:
                    4e:9c:7f:3c:b9:2f:1d:c0:b1:f5:dc:61:34:9b:70:
                    2c:7e:37:43:1d:3b:71:b5:74:42:94:46:1d:a2:57:
                    51:63:8c:86:7e:fd:33:3f:85:96:c7:8e:60:7b:8f:
                    8e:55:c5:a4:49:bb:40:07:de:0b:64:d5:33:a0:97:
                    11:e4:a5:4b:3f:f9:75:0e:3c:00:09:92:07:84:49:
                    87:bf:ae:90:4e:10:58:f4:ac:92:0c:1a:6b:1d:48:
                    b6:00:d2:78:4e:cf:7a:0c:ba:0f:7f:69:93:e3:34:
                    48:45:87:53:79:b3:d6:e0:96:48:e3:40:23:67:44:
                    7f:89:5c:e5:24:ec:5e:7d:de:70:20:27:c6:a3:60:
                    74:5c:14:44:0d:7d:51:26:f3:7b:02:ac:b7:f0:7d:
                    ad:65
                Exponent: 65537 (0x10001)
        X509v3 extensions:
            X509v3 Key Usage: critical
                Certificate Sign, CRL Sign
            X509v3 Basic Constraints: critical
                CA:TRUE
            X509v3 Subject Key Identifier: 
                A9:DE:EE:20:0B:8E:F3:9D:C2:30:BE:20:15:EE:FA:67:BB:24:6B:7F
            X509v3 Authority Key Identifier: 
                keyid:A9:DE:EE:20:0B:8E:F3:9D:C2:30:BE:20:15:EE:FA:67:BB:24:6B:7F

    Signature Algorithm: sha256WithRSAEncryption
         13:fc:4f:e6:bd:c0:45:23:74:9f:4f:6a:e1:0d:24:b3:4b:bc:
         91:54:55:be:ed:79:18:6b:be:6d:5c:11:ba:79:57:8f:ea:31:
         80:27:1f:97:c3:98:f5:ad:98:63:f0:a5:c8:5e:e8:ae:ef:89:
         84:47:79:83:60:e7:9d:61:d2:04:c6:b2:8f:ee:2b:5b:d3:d3:
         44:92:76:43:53:ca:fe:06:b8:b4:4b:f6:44:d6:e2:5e:a4:18:
         bd:9a:f0:35:43:94:b9:c7:87:17:a8:11:35:10:6e:67:e6:98:
         71:12:eb:51:ef:a1:23:c1:de:16:ae:0d:10:21:d5:f4:ba:c0:
         45:13:b2:50:f7:e9:c0:c7:8a:02:91:e7:db:72:88:af:c8:67:
         b9:ba:89:83:5a:6a:82:83:21:37:66:68:65:07:d0:3c:72:68:
         b0:70:6d:f8:4e:2a:26:78:09:e6:36:0e:be:14:f5:c6:59:c2:
         06:b3:34:66:c2:58:9d:9e:51:58:6e:24:7e:01:95:be:fc:04:
         b1:91:f8:ac:4c:19:db:06:71:c5:d0:bc:df:8a:6e:fc:23:2b:
         44:48:fe:38:f1:7a:fb:48:4b:11:92:6d:95:87:ee:26:e9:b6:
         d6:0a:07:47:ea:c7:19:69:0b:e4:e6:c1:a1:6c:09:3f:16:6f:
         dc:d5:49:b5
-----BEGIN CERTIFICATE-----
MIIDfjCCAmagAwIBAgIBATANBgkqhkiG9w0BAQsFADBQMQswCQYDVQQGEwJVUzEP
MA0GA1UECgwGR29vZ2xlMRMwEQYDVQQLDApFbnRlcnByaXNlMRswGQYDVQQDDBJF
bnRlcnByaXNlIFJvb3QgQ0EwHhcNMjIwNTI1MTEzNzQ4WhcNMzIwNTI0MTEzNzQ4
WjBQMQswCQYDVQQGEwJVUzEPMA0GA1UECgwGR29vZ2xlMRMwEQYDVQQLDApFbnRl
cnByaXNlMRswGQYDVQQDDBJFbnRlcnByaXNlIFJvb3QgQ0EwggEiMA0GCSqGSIb3
DQEBAQUAA4IBDwAwggEKAoIBAQC1iZAqFut2CJIgaJ7OWt0K0WT5WyN8Hz07778H
cdQFBKs4VYUwvM0mRj/xFoTOsxSuJ9+wS4OtVcrbzKzNRWeJv02ZBhSY/nyI6hiI
I7SvwQGoZJFGlRQP+/LlIYTCLMt0UPx7LJC0eU6cfzy5Lx3AsfXcYTSbcCx+N0Md
O3G1dEKURh2iV1FjjIZ+/TM/hZbHjmB7j45VxaRJu0AH3gtk1TOglxHkpUs/+XUO
PAAJkgeESYe/rpBOEFj0rJIMGmsdSLYA0nhOz3oMug9/aZPjNEhFh1N5s9bglkjj
QCNnRH+JXOUk7F593nAgJ8ajYHRcFEQNfVEm83sCrLfwfa1lAgMBAAGjYzBhMA4G
A1UdDwEB/wQEAwIBBjAPBgNVHRMBAf8EBTADAQH/MB0GA1UdDgQWBBSp3u4gC47z
ncIwviAV7vpnuyRrfzAfBgNVHSMEGDAWgBSp3u4gC47zncIwviAV7vpnuyRrfzAN
BgkqhkiG9w0BAQsFAAOCAQEAE/xP5r3ARSN0n09q4Q0ks0u8kVRVvu15GGu+bVwR
unlXj+oxgCcfl8OY9a2YY/ClyF7oru+JhEd5g2DnnWHSBMayj+4rW9PTRJJ2Q1PK
/ga4tEv2RNbiXqQYvZrwNUOUuceHF6gRNRBuZ+aYcRLrUe+hI8HeFq4NECHV9LrA
RROyUPfpwMeKApHn23KIr8hnubqJg1pqgoMhN2ZoZQfQPHJosHBt+E4qJngJ5jYO
vhT1xlnCBrM0ZsJYnZ5RWG4kfgGVvvwEsZH4rEwZ2wZxxdC834pu/CMrREj+OPF6
+0hLEZJtlYfuJum21goHR+rHGWkL5ObBoWwJPxZv3NVJtQ==
-----END CERTIFICATE-----
Certificate:
    Data:
        Version: 3 (0x2)
        Serial Number: 1 (0x1)
        Signature Algorithm: sha256WithRSAEncryption
        Issuer: C=US, O=Google, OU=Enterprise, CN=Enterprise Subordinate CA
        Validity
            Not Before: May 25 11:42:11 2022 GMT
            Not After : Feb 18 11:42:11 2027 GMT
        Subject: C=US, O=Google, OU=Enterprise, CN=ocsp.domain.com
        Subject Public Key Info:
            Public Key Algorithm: rsaEncryption
                RSA Public-Key: (2048 bit)
                Modulus:
                    00:c3:d3:df:d3:b7:82:28:1e:44:9b:81:18:19:59:
                    cb:32:5c:ba:9a:b9:a4:fb:b6:d7:46:f6:e6:d0:7b:
                    79:eb:39:bd:2d:0b:9c:54:cb:ff:76:a0:86:9a:c9:
                    59:a0:22:12:6d:16:d1:c6:0d:88:b6:e2:93:5c:95:
                    e7:85:a6:4d:6d:a2:85:f5:62:81:3a:0e:85:4a:1a:
                    f5:b1:56:ec:b5:b2:e2:be:7d:a4:dc:19:16:24:29:
                    0f:cb:26:1d:11:0a:b4:01:74:c6:f0:4d:8f:ba:de:
                    db:43:ab:b4:e6:6f:f2:9d:c9:9d:4b:ce:57:09:c7:
                    58:8d:41:e0:f5:55:71:b8:97:11:06:16:52:74:8b:
                    98:60:2c:28:0c:0f:c5:33:0c:24:de:60:cc:e2:65:
                    1c:54:9a:1a:02:c4:36:31:db:7d:00:dd:1e:7c:14:
                    1a:ce:b4:ee:3e:45:38:a7:30:31:e1:5e:75:7f:3f:
                    bb:b2:41:7e:69:86:28:92:48:94:68:ed:13:0f:76:
                    9b:13:53:0c:69:06:36:6d:f5:d3:15:05:7d:f2:52:
                    21:7f:92:d5:36:6f:4a:93:df:e0:67:2f:a7:0c:61:
                    9c:8b:99:ba:92:a5:b4:e3:70:d6:50:1e:a8:bd:1f:
                    08:8c:56:7f:f4:32:63:16:19:59:dc:7f:95:ea:bd:
                    72:89
                Exponent: 65537 (0x10001)
        X509v3 extensions:
            X509v3 Key Usage: critical
                Digital Signature
            X509v3 Basic Constraints: 
                CA:FALSE
            X509v3 Extended Key Usage: 
                OCSP Signing
            X509v3 Subject Key Identifier: 
                1C:49:6F:B6:A9:5F:C9:97:42:74:3D:15:9F:E0:35:FA:F4:3A:DF:C7
            X509v3 Authority Key Identifier: 
                keyid:65:11:BD:CE:06:7C:D4:7C:74:7F:34:3F:F4:83:4A:68:7D:F9:E0:76

            Authority Information Access: 
                CA Issuers - URI:http://pki.esodemoapp2.com/ca/tls-ca.cer

            X509v3 CRL Distribution Points: 

                Full Name:
                  URI:http://pki.esodemoapp2.com/ca/tls-ca.crl

            X509v3 Subject Alternative Name: 
                DNS:ocsp.domain.com
    Signature Algorithm: sha256WithRSAEncryption
         74:82:14:7a:23:9e:6a:62:eb:f0:25:c8:09:88:4a:5b:62:45:
         a5:90:09:ad:db:61:7c:37:4e:fc:b0:25:2c:0e:b4:fd:97:6f:
         0c:c1:19:5d:0a:83:9b:6c:db:72:b9:e2:3d:33:b7:8c:33:3d:
         d5:09:be:2c:63:5d:4a:d7:06:32:2a:44:99:bd:df:fe:66:34:
         27:e9:02:8d:35:23:a5:28:bb:ef:65:76:ba:c2:09:c2:79:c5:
         7e:3f:62:d5:97:65:61:8d:98:83:ac:8d:1c:ce:40:b3:f6:c1:
         1c:4c:51:84:93:53:43:21:33:4d:ae:2d:58:76:22:d8:ea:f0:
         df:d5:ec:8d:42:de:e5:46:a5:2a:7e:17:ed:6e:99:2f:6c:fa:
         ca:93:5c:3f:0e:94:74:1f:6e:80:f9:ad:3b:15:83:ba:d6:d1:
         ef:d1:59:dd:64:94:4c:82:ed:3c:d4:31:35:5d:2c:3a:fb:e2:
         02:9e:bf:f1:66:1b:39:87:cb:42:32:bf:b8:41:d8:30:c0:48:
         4a:d5:81:34:ac:e3:6e:95:15:a3:22:8d:af:7e:16:9f:df:e8:
         2a:e1:41:ce:21:12:30:5e:f7:84:51:c4:a2:cd:80:d3:85:a4:
         6a:e4:17:36:54:41:b6:6b:c0:85:8b:e2:5d:ff:64:6e:ea:b4:
         ee:b9:2a:55
-----BEGIN CERTIFICATE-----
MIIEMjCCAxqgAwIBAgIBATANBgkqhkiG9w0BAQsFADBXMQswCQYDVQQGEwJVUzEP
MA0GA1UECgwGR29vZ2xlMRMwEQYDVQQLDApFbnRlcnByaXNlMSIwIAYDVQQDDBlF
bnRlcnByaXNlIFN1Ym9yZGluYXRlIENBMB4XDTIyMDUyNTExNDIxMVoXDTI3MDIx
ODExNDIxMVowTTELMAkGA1UEBhMCVVMxDzANBgNVBAoMBkdvb2dsZTETMBEGA1UE
CwwKRW50ZXJwcmlzZTEYMBYGA1UEAwwPb2NzcC5kb21haW4uY29tMIIBIjANBgkq
hkiG9w0BAQEFAAOCAQ8AMIIBCgKCAQEAw9Pf07eCKB5Em4EYGVnLMly6mrmk+7bX
Rvbm0Ht56zm9LQucVMv/dqCGmslZoCISbRbRxg2ItuKTXJXnhaZNbaKF9WKBOg6F
Shr1sVbstbLivn2k3BkWJCkPyyYdEQq0AXTG8E2Put7bQ6u05m/yncmdS85XCcdY
jUHg9VVxuJcRBhZSdIuYYCwoDA/FMwwk3mDM4mUcVJoaAsQ2Mdt9AN0efBQazrTu
PkU4pzAx4V51fz+7skF+aYYokkiUaO0TD3abE1MMaQY2bfXTFQV98lIhf5LVNm9K
k9/gZy+nDGGci5m6kqW043DWUB6ovR8IjFZ/9DJjFhlZ3H+V6r1yiQIDAQABo4IB
ETCCAQ0wDgYDVR0PAQH/BAQDAgeAMAkGA1UdEwQCMAAwEwYDVR0lBAwwCgYIKwYB
BQUHAwkwHQYDVR0OBBYEFBxJb7apX8mXQnQ9FZ/gNfr0Ot/HMB8GA1UdIwQYMBaA
FGURvc4GfNR8dH80P/SDSmh9+eB2MEQGCCsGAQUFBwEBBDgwNjA0BggrBgEFBQcw
AoYoaHR0cDovL3BraS5lc29kZW1vYXBwMi5jb20vY2EvdGxzLWNhLmNlcjA5BgNV
HR8EMjAwMC6gLKAqhihodHRwOi8vcGtpLmVzb2RlbW9hcHAyLmNvbS9jYS90bHMt
Y2EuY3JsMBoGA1UdEQQTMBGCD29jc3AuZG9tYWluLmNvbTANBgkqhkiG9w0BAQsF
AAOCAQEAdIIUeiOeamLr8CXICYhKW2JFpZAJrdthfDdO/LAlLA60/ZdvDMEZXQqD
m2zbcrniPTO3jDM91Qm+LGNdStcGMipEmb3f/mY0J+kCjTUjpSi772V2usIJwnnF
fj9i1ZdlYY2Yg6yNHM5As/bBHExRhJNTQyEzTa4tWHYi2Orw39XsjULe5UalKn4X
7W6ZL2z6ypNcPw6UdB9ugPmtOxWDutbR79FZ3WSUTILtPNQxNV0sOvviAp6/8WYb
OYfLQjK/uEHYMMBIStWBNKzjbpUVoyKNr34Wn9/oKuFBziESMF73hFHEos2A04Wk
auQXNlRBtmvAhYviXf9kbuq07rkqVQ==
-----END CERTIFICATE-----
