Certificate:
    Data:
        Version: 3 (0x2)
        Serial Number: 2 (0x2)
        Signature Algorithm: sha256WithRSAEncryption
        Issuer: C=US, O=Google, OU=Enterprise, CN=Single Root CA
        Validity
            Not Before: Nov 16 13:55:33 2024 GMT
            Not After : Nov 16 13:55:33 2034 GMT
        Subject: C=US, O=Google, OU=Enterprise, CN=http.domain.com
        Subject Public Key Info:
            Public Key Algorithm: rsaEncryption
                Public-Key: (2048 bit)
                Modulus:
                    00:bc:1a:66:93:e9:f7:a7:3f:1f:7b:01:4b:e1:d8:
                    99:76:6b:30:7f:7b:d3:75:41:f8:36:02:ef:69:28:
                    07:33:f1:5b:9e:d6:7d:cb:6d:ea:bb:d2:13:80:0c:
                    5b:52:e5:6e:7d:c3:d2:9f:fc:60:94:7b:b2:0d:de:
                    36:3a:34:04:e2:14:78:d2:54:c4:ca:3d:43:76:a9:
                    e7:84:43:25:4f:a7:34:9b:1d:a2:1e:86:40:ac:17:
                    7f:ac:54:46:7b:47:a5:52:b0:28:81:1c:42:de:81:
                    9a:70:24:f7:f0:1c:74:01:fe:6d:2c:83:81:ec:e2:
                    5f:cd:16:15:60:b2:f0:7a:a4:d3:92:0d:62:ee:0a:
                    3f:dc:fc:cd:6b:68:3d:3d:66:b2:55:7b:0b:eb:20:
                    50:66:03:94:18:4b:e2:f5:c1:21:ee:79:ae:31:5b:
                    59:99:cd:00:2e:74:57:a1:b1:eb:76:ec:e3:40:b4:
                    ee:bd:1e:15:8b:60:a2:05:99:c8:98:25:1a:80:16:
                    b0:b1:4f:98:f6:46:e8:25:3e:c0:6b:42:9f:ff:de:
                    aa:b3:5d:1e:b5:4d:8e:9b:d3:ae:66:53:a2:23:0e:
                    00:e5:c8:fa:ab:3e:c4:97:2f:35:28:e5:4c:fa:92:
                    e2:fe:44:99:e5:6e:70:fb:f7:c1:00:12:d9:25:76:
                    48:59
                Exponent: 65537 (0x10001)
        X509v3 extensions:
            X509v3 Key Usage: critical
                Digital Signature
            X509v3 Basic Constraints: 
                CA:FALSE
            X509v3 Extended Key Usage: 
                TLS Web Server Authentication
            X509v3 Subject Key Identifier: 
                7A:AB:6B:6E:40:B5:54:8F:14:B4:94:09:B4:2D:67:CF:9B:3B:F3:10
            X509v3 Authority Key Identifier: 
                33:1A:81:E6:00:5B:F5:6E:17:DE:78:9B:32:F7:D1:A5:0B:E1:2E:31
            Authority Information Access: 
                CA Issuers - URI:http://pki.esodemoapp2.com/ca/root-ca.cer
            X509v3 CRL Distribution Points: 
                Full Name:
                  URI:http://pki.esodemoapp2.com/ca/root-ca.crl
            X509v3 Subject Alternative Name: 
                DNS:http.domain.com
    Signature Algorithm: sha256WithRSAEncryption
    Signature Value:
        59:df:7d:52:01:81:a3:05:d2:04:1b:d1:77:f9:1d:fd:52:49:
        ae:50:b0:6c:38:a1:f5:f8:c4:56:14:09:98:8f:04:4a:e4:b8:
        df:11:c5:24:b9:ed:34:f4:8a:2a:3c:6c:95:42:9d:91:f4:3f:
        f4:69:cd:1e:1e:e9:cb:06:8a:95:5c:27:19:3b:6f:3d:48:9a:
        2d:84:e6:02:2b:6d:0b:af:5a:01:55:26:da:2f:df:34:3b:2f:
        8b:01:81:26:2e:16:a4:39:d9:7c:61:5f:ce:cf:8e:e7:70:eb:
        a8:d8:29:f7:d8:16:9f:2f:5d:d2:8f:d2:da:fa:c7:85:cc:bb:
        1f:f4:35:4e:95:8c:0d:c9:ab:2a:fb:49:50:e9:ea:90:1f:18:
        78:39:02:b9:a0:3e:18:44:de:37:ba:e1:82:01:44:a3:e5:4a:
        7d:6b:dd:75:a7:d3:c5:b2:58:f9:9b:04:aa:cf:67:2b:de:ba:
        34:54:5e:56:e2:94:93:d4:7b:e4:c4:ae:bd:6d:27:3d:7a:4e:
        12:fd:85:9b:43:7e:a2:fc:48:29:5c:d4:9b:f5:ba:ad:4f:7d:
        92:99:cb:ec:e7:1b:e2:ff:30:0e:ac:e5:a4:94:62:f7:84:9d:
        ba:a3:66:a0:5c:11:4e:c9:98:ea:6a:9c:b9:24:87:ba:62:88:
        47:a7:91:c5
-----BEGIN CERTIFICATE-----
MIIEKTCCAxGgAwIBAgIBAjANBgkqhkiG9w0BAQsFADBMMQswCQYDVQQGEwJVUzEP
MA0GA1UECgwGR29vZ2xlMRMwEQYDVQQLDApFbnRlcnByaXNlMRcwFQYDVQQDDA5T
aW5nbGUgUm9vdCBDQTAeFw0yNDExMTYxMzU1MzNaFw0zNDExMTYxMzU1MzNaME0x
CzAJBgNVBAYTAlVTMQ8wDQYDVQQKDAZHb29nbGUxEzARBgNVBAsMCkVudGVycHJp
c2UxGDAWBgNVBAMMD2h0dHAuZG9tYWluLmNvbTCCASIwDQYJKoZIhvcNAQEBBQAD
ggEPADCCAQoCggEBALwaZpPp96c/H3sBS+HYmXZrMH9703VB+DYC72koBzPxW57W
fctt6rvSE4AMW1Llbn3D0p/8YJR7sg3eNjo0BOIUeNJUxMo9Q3ap54RDJU+nNJsd
oh6GQKwXf6xURntHpVKwKIEcQt6BmnAk9/AcdAH+bSyDgeziX80WFWCy8Hqk05IN
Yu4KP9z8zWtoPT1mslV7C+sgUGYDlBhL4vXBIe55rjFbWZnNAC50V6Gx63bs40C0
7r0eFYtgogWZyJglGoAWsLFPmPZG6CU+wGtCn//eqrNdHrVNjpvTrmZToiMOAOXI
+qs+xJcvNSjlTPqS4v5EmeVucPv3wQAS2SV2SFkCAwEAAaOCARMwggEPMA4GA1Ud
DwEB/wQEAwIHgDAJBgNVHRMEAjAAMBMGA1UdJQQMMAoGCCsGAQUFBwMBMB0GA1Ud
DgQWBBR6q2tuQLVUjxS0lAm0LWfPmzvzEDAfBgNVHSMEGDAWgBQzGoHmAFv1bhfe
eJsy99GlC+EuMTBFBggrBgEFBQcBAQQ5MDcwNQYIKwYBBQUHMAKGKWh0dHA6Ly9w
a2kuZXNvZGVtb2FwcDIuY29tL2NhL3Jvb3QtY2EuY2VyMDoGA1UdHwQzMDEwL6At
oCuGKWh0dHA6Ly9wa2kuZXNvZGVtb2FwcDIuY29tL2NhL3Jvb3QtY2EuY3JsMBoG
A1UdEQQTMBGCD2h0dHAuZG9tYWluLmNvbTANBgkqhkiG9w0BAQsFAAOCAQEAWd99
UgGBowXSBBvRd/kd/VJJrlCwbDih9fjEVhQJmI8ESuS43xHFJLntNPSKKjxslUKd
kfQ/9GnNHh7pywaKlVwnGTtvPUiaLYTmAittC69aAVUm2i/fNDsviwGBJi4WpDnZ
fGFfzs+O53DrqNgp99gWny9d0o/S2vrHhcy7H/Q1TpWMDcmrKvtJUOnqkB8YeDkC
uaA+GETeN7rhggFEo+VKfWvddafTxbJY+ZsEqs9nK966NFReVuKUk9R75MSuvW0n
PXpOEv2Fm0N+ovxIKVzUm/W6rU99kpnL7Ocb4v8wDqzlpJRi94SduqNmoFwRTsmY
6mqcuSSHumKIR6eRxQ==
-----END CERTIFICATE-----
