Certificate:
    Data:
        Version: 3 (0x2)
        Serial Number: 4 (0x4)
        Signature Algorithm: sha256WithRSAEncryption
        Issuer: C=US, O=Google, OU=Enterprise, CN=Single Root CA
        Validity
            Not Before: Nov 16 14:09:48 2024 GMT
            Not After : Nov 16 14:09:48 2034 GMT
        Subject: L=US, O=Google, OU=Enterprise, CN=ocsp.domain.com
        Subject Public Key Info:
            Public Key Algorithm: rsaEncryption
                Public-Key: (2048 bit)
                Modulus:
                    00:cf:9a:e4:fd:55:f4:bf:e0:ec:5c:5a:c8:cf:74:
                    53:91:57:ad:7b:9e:eb:7e:4e:3f:24:09:59:50:93:
                    2a:e1:dc:17:b4:9c:87:e7:d5:87:d9:23:15:40:e2:
                    0a:eb:b8:c3:c6:16:60:8d:bc:7b:28:7a:87:24:41:
                    b9:d5:03:d6:d1:e2:5c:c3:c3:39:77:1c:fd:54:48:
                    23:81:9d:1b:6c:bf:c5:a2:be:23:9e:a8:19:57:58:
                    b1:f8:3b:56:89:c2:15:61:ed:5d:d8:aa:3e:0c:46:
                    ec:e5:f2:2d:bb:77:f7:82:b1:4b:d3:a0:37:52:3b:
                    b1:f8:19:9d:8f:2c:fa:ab:cc:03:25:e5:cb:f6:47:
                    12:22:e6:63:0b:0b:08:82:71:a8:0a:a6:19:21:eb:
                    d8:22:65:5d:b4:14:e7:af:18:6a:3c:99:c4:f0:65:
                    61:ab:40:6b:4f:17:d1:93:66:a8:76:e4:64:85:c7:
                    65:7c:06:b0:cc:0b:57:63:9e:6c:a1:b0:d9:ee:ad:
                    9e:bf:c8:71:04:2b:9e:95:3f:c5:01:5e:c2:aa:69:
                    39:b5:56:74:b5:e3:9e:f6:37:3e:99:12:ee:35:58:
                    56:4b:f6:4f:0f:7f:55:ec:a7:d0:c9:42:03:78:e7:
                    80:2b:0f:76:a9:cb:be:e3:44:f3:8c:f8:f1:6b:3a:
                    30:e9
                Exponent: 65537 (0x10001)
        X509v3 extensions:
            X509v3 Key Usage: critical
                Digital Signature
            X509v3 Basic Constraints: 
                CA:FALSE
            X509v3 Extended Key Usage: 
                OCSP Signing
            X509v3 Subject Key Identifier: 
                58:5C:02:97:AF:B4:51:2D:0C:B5:0B:AB:8B:16:9A:EB:6C:63:CD:4E
            X509v3 Authority Key Identifier: 
                33:1A:81:E6:00:5B:F5:6E:17:DE:78:9B:32:F7:D1:A5:0B:E1:2E:31
            Authority Information Access: 
                CA Issuers - URI:http://pki.esodemoapp2.com/ca/root-ca.cer
            X509v3 CRL Distribution Points: 
                Full Name:
                  URI:http://pki.esodemoapp2.com/ca/root-ca.crl
            X509v3 Subject Alternative Name: 
                DNS:ocsp.domain.com
    Signature Algorithm: sha256WithRSAEncryption
    Signature Value:
        14:24:16:dd:54:6a:9a:d3:ab:69:b3:b8:d7:7f:21:4e:7f:f1:
        ee:eb:63:72:76:82:6d:85:f1:40:3e:cd:56:da:44:ef:24:fd:
        5f:2b:3e:8c:d4:ca:9d:3e:2b:be:00:af:16:f7:6f:62:df:fb:
        f7:3b:a9:b8:ae:41:46:66:91:75:89:0c:e9:81:98:44:4a:ac:
        23:c7:52:4f:42:d6:03:5f:54:79:ad:dd:c8:23:82:d9:bb:8c:
        a1:8d:00:90:31:26:74:6e:eb:30:0a:87:4a:d4:e2:6a:36:b7:
        b5:db:7d:fd:0d:5a:5e:99:57:9e:ae:04:03:97:85:3b:96:70:
        5d:8e:5e:dd:46:df:cb:50:1e:66:fb:57:eb:5d:fa:55:c5:4e:
        ef:9c:b4:a5:c6:f6:db:34:f0:75:22:9d:3b:20:64:d4:a2:e0:
        ce:88:81:75:21:fd:4a:a7:cc:8b:c8:07:a1:08:bb:06:59:d6:
        a3:99:81:85:6a:08:31:49:c4:db:91:d6:3f:c7:eb:02:5c:7e:
        1a:cf:e4:27:cc:ef:fa:9b:ab:6e:2b:0b:8f:f5:0d:20:78:c3:
        d5:b7:43:bd:ef:ad:d4:f3:cd:6f:b9:1c:72:56:84:9e:dd:bf:
        96:18:57:03:5c:c5:4f:f7:a3:6c:2c:ab:3d:cc:8b:66:58:ff:
        01:e2:46:de
-----BEGIN CERTIFICATE-----
MIIEKTCCAxGgAwIBAgIBBDANBgkqhkiG9w0BAQsFADBMMQswCQYDVQQGEwJVUzEP
MA0GA1UECgwGR29vZ2xlMRMwEQYDVQQLDApFbnRlcnByaXNlMRcwFQYDVQQDDA5T
aW5nbGUgUm9vdCBDQTAeFw0yNDExMTYxNDA5NDhaFw0zNDExMTYxNDA5NDhaME0x
CzAJBgNVBAcMAlVTMQ8wDQYDVQQKDAZHb29nbGUxEzARBgNVBAsMCkVudGVycHJp
c2UxGDAWBgNVBAMMD29jc3AuZG9tYWluLmNvbTCCASIwDQYJKoZIhvcNAQEBBQAD
ggEPADCCAQoCggEBAM+a5P1V9L/g7FxayM90U5FXrXue635OPyQJWVCTKuHcF7Sc
h+fVh9kjFUDiCuu4w8YWYI28eyh6hyRBudUD1tHiXMPDOXcc/VRII4GdG2y/xaK+
I56oGVdYsfg7VonCFWHtXdiqPgxG7OXyLbt394KxS9OgN1I7sfgZnY8s+qvMAyXl
y/ZHEiLmYwsLCIJxqAqmGSHr2CJlXbQU568YajyZxPBlYatAa08X0ZNmqHbkZIXH
ZXwGsMwLV2OebKGw2e6tnr/IcQQrnpU/xQFewqppObVWdLXjnvY3PpkS7jVYVkv2
Tw9/Veyn0MlCA3jngCsPdqnLvuNE84z48Ws6MOkCAwEAAaOCARMwggEPMA4GA1Ud
DwEB/wQEAwIHgDAJBgNVHRMEAjAAMBMGA1UdJQQMMAoGCCsGAQUFBwMJMB0GA1Ud
DgQWBBRYXAKXr7RRLQy1C6uLFprrbGPNTjAfBgNVHSMEGDAWgBQzGoHmAFv1bhfe
eJsy99GlC+EuMTBFBggrBgEFBQcBAQQ5MDcwNQYIKwYBBQUHMAKGKWh0dHA6Ly9w
a2kuZXNvZGVtb2FwcDIuY29tL2NhL3Jvb3QtY2EuY2VyMDoGA1UdHwQzMDEwL6At
oCuGKWh0dHA6Ly9wa2kuZXNvZGVtb2FwcDIuY29tL2NhL3Jvb3QtY2EuY3JsMBoG
A1UdEQQTMBGCD29jc3AuZG9tYWluLmNvbTANBgkqhkiG9w0BAQsFAAOCAQEAFCQW
3VRqmtOrabO4138hTn/x7utjcnaCbYXxQD7NVtpE7yT9Xys+jNTKnT4rvgCvFvdv
Yt/79zupuK5BRmaRdYkM6YGYREqsI8dST0LWA19Uea3dyCOC2buMoY0AkDEmdG7r
MAqHStTiaja3tdt9/Q1aXplXnq4EA5eFO5ZwXY5e3Ubfy1AeZvtX6136VcVO75y0
pcb22zTwdSKdOyBk1KLgzoiBdSH9SqfMi8gHoQi7BlnWo5mBhWoIMUnE25HWP8fr
Alx+Gs/kJ8zv+purbisLj/UNIHjD1bdDve+t1PPNb7kcclaEnt2/lhhXA1zFT/ej
bCyrPcyLZlj/AeJG3g==
-----END CERTIFICATE-----
Certificate:
    Data:
        Version: 3 (0x2)
        Serial Number: 1 (0x1)
        Signature Algorithm: sha256WithRSAEncryption
        Issuer: C=US, O=Google, OU=Enterprise, CN=Single Root CA
        Validity
            Not Before: Nov 16 13:52:13 2024 GMT
            Not After : Nov 16 13:52:13 2034 GMT
        Subject: C=US, O=Google, OU=Enterprise, CN=Single Root CA
        Subject Public Key Info:
            Public Key Algorithm: rsaEncryption
                Public-Key: (2048 bit)
                Modulus:
                    00:9e:8a:b7:25:d7:4b:dc:55:ab:02:13:4d:01:9d:
                    e3:51:8b:aa:a1:22:be:8a:b4:b7:1f:3c:69:a3:7f:
                    2e:8d:e6:e7:4d:c1:14:c1:a1:4e:af:20:a8:fc:54:
                    de:3e:7b:75:19:a0:9c:53:07:39:f2:86:3e:1d:ca:
                    f0:a2:0b:40:e5:db:74:2f:3d:5a:4e:59:b7:95:3c:
                    f2:76:48:e8:cb:c5:1b:30:25:20:ed:8c:6f:6c:9f:
                    05:62:ae:a7:5d:04:58:fc:c9:7d:ae:a7:6b:b8:bf:
                    71:3c:a4:02:ed:40:f1:be:70:eb:13:ac:9c:40:4c:
                    01:3d:76:d9:89:ce:7d:46:66:b7:4b:4b:c4:98:00:
                    31:e9:30:1d:75:78:e1:dd:a2:0e:be:ee:ac:8e:f6:
                    c7:fb:d6:8e:c2:21:3c:00:08:d0:67:51:a5:a8:ce:
                    b7:ba:73:7f:92:db:7a:51:00:72:b7:58:fe:12:81:
                    37:01:34:6a:36:9d:b8:f3:af:01:c7:4a:36:5a:b6:
                    bc:90:98:d4:8c:d3:c0:f5:41:71:98:fa:82:1c:74:
                    e2:7e:3a:0d:30:e2:38:93:85:f0:97:01:50:78:ca:
                    6b:45:96:ff:95:fb:17:79:c4:a6:13:41:b3:d8:37:
                    4a:0e:db:28:18:29:aa:8e:67:85:6a:30:5c:1b:07:
                    32:ed
                Exponent: 65537 (0x10001)
        X509v3 extensions:
            X509v3 Key Usage: critical
                Certificate Sign, CRL Sign
            X509v3 Basic Constraints: critical
                CA:TRUE
            X509v3 Subject Key Identifier: 
                33:1A:81:E6:00:5B:F5:6E:17:DE:78:9B:32:F7:D1:A5:0B:E1:2E:31
            X509v3 Authority Key Identifier: 
                33:1A:81:E6:00:5B:F5:6E:17:DE:78:9B:32:F7:D1:A5:0B:E1:2E:31
    Signature Algorithm: sha256WithRSAEncryption
    Signature Value:
        65:bf:87:9a:4b:86:f1:cb:b3:51:af:09:36:9a:95:e6:89:66:
        95:ef:7d:6f:bb:38:8d:be:d6:0a:6c:53:55:e3:23:60:a3:af:
        2e:ce:da:c3:ba:df:2d:0b:31:e7:2a:a5:03:79:44:e2:a6:ef:
        06:5e:01:d2:4b:2a:b2:28:02:2e:43:2a:bd:6e:fc:ed:45:70:
        f0:03:b9:10:9c:36:cc:c9:bc:b9:52:65:b0:a2:a2:ce:28:03:
        be:2e:31:b4:a5:6b:5e:ec:b5:60:9c:af:86:83:70:f4:76:53:
        2c:7b:21:f0:54:f9:bd:90:6d:c3:7c:bf:44:b9:12:e0:b9:17:
        f1:89:e3:dc:2f:5f:2c:4a:e9:6a:6f:df:b7:b0:b2:24:7f:0c:
        23:93:a7:3f:c8:3e:85:cb:98:09:a3:31:d0:ad:8f:49:8b:cf:
        fb:d5:9f:5c:c7:21:6f:49:11:db:53:5c:9e:f7:0c:e2:44:7c:
        98:da:50:5c:b8:53:5b:8b:4a:05:31:3e:a1:87:c1:39:93:90:
        85:44:be:6a:7b:82:9a:bd:f8:39:e2:c4:07:ea:2f:08:4a:2c:
        ff:4f:cf:1a:f0:40:c7:e3:22:82:ce:d7:3a:9e:e0:0e:b3:50:
        81:63:08:0e:67:65:57:d3:c3:59:8b:fc:4f:48:39:3a:ac:fc:
        ba:59:c9:c4
-----BEGIN CERTIFICATE-----
MIIDdjCCAl6gAwIBAgIBATANBgkqhkiG9w0BAQsFADBMMQswCQYDVQQGEwJVUzEP
MA0GA1UECgwGR29vZ2xlMRMwEQYDVQQLDApFbnRlcnByaXNlMRcwFQYDVQQDDA5T
aW5nbGUgUm9vdCBDQTAeFw0yNDExMTYxMzUyMTNaFw0zNDExMTYxMzUyMTNaMEwx
CzAJBgNVBAYTAlVTMQ8wDQYDVQQKDAZHb29nbGUxEzARBgNVBAsMCkVudGVycHJp
c2UxFzAVBgNVBAMMDlNpbmdsZSBSb290IENBMIIBIjANBgkqhkiG9w0BAQEFAAOC
AQ8AMIIBCgKCAQEAnoq3JddL3FWrAhNNAZ3jUYuqoSK+irS3Hzxpo38ujebnTcEU
waFOryCo/FTePnt1GaCcUwc58oY+HcrwogtA5dt0Lz1aTlm3lTzydkjoy8UbMCUg
7YxvbJ8FYq6nXQRY/Ml9rqdruL9xPKQC7UDxvnDrE6ycQEwBPXbZic59Rma3S0vE
mAAx6TAddXjh3aIOvu6sjvbH+9aOwiE8AAjQZ1GlqM63unN/ktt6UQByt1j+EoE3
ATRqNp24868Bx0o2Wra8kJjUjNPA9UFxmPqCHHTifjoNMOI4k4XwlwFQeMprRZb/
lfsXecSmE0Gz2DdKDtsoGCmqjmeFajBcGwcy7QIDAQABo2MwYTAOBgNVHQ8BAf8E
BAMCAQYwDwYDVR0TAQH/BAUwAwEB/zAdBgNVHQ4EFgQUMxqB5gBb9W4X3nibMvfR
pQvhLjEwHwYDVR0jBBgwFoAUMxqB5gBb9W4X3nibMvfRpQvhLjEwDQYJKoZIhvcN
AQELBQADggEBAGW/h5pLhvHLs1GvCTaaleaJZpXvfW+7OI2+1gpsU1XjI2Cjry7O
2sO63y0LMecqpQN5ROKm7wZeAdJLKrIoAi5DKr1u/O1FcPADuRCcNszJvLlSZbCi
os4oA74uMbSla17stWCcr4aDcPR2Uyx7IfBU+b2QbcN8v0S5EuC5F/GJ49wvXyxK
6Wpv37ewsiR/DCOTpz/IPoXLmAmjMdCtj0mLz/vVn1zHIW9JEdtTXJ73DOJEfJja
UFy4U1uLSgUxPqGHwTmTkIVEvmp7gpq9+DnixAfqLwhKLP9PzxrwQMfjIoLO1zqe
4A6zUIFjCA5nZVfTw1mL/E9IOTqs/LpZycQ=
-----END CERTIFICATE-----
