Certificate:
    Data:
        Version: 3 (0x2)
        Serial Number: 2 (0x2)
        Signature Algorithm: sha256WithRSAEncryption
        Issuer: C=US, O=Google, OU=Enterprise, CN=Single Root CA
        Validity
            Not Before: Nov 16 13:55:33 2024 GMT
            Not After : Nov 16 13:55:33 2034 GMT
        Subject: C=US, O=Google, OU=Enterprise, CN=http.domain.com
        Subject Public Key Info:
            Public Key Algorithm: rsaEncryption
                Public-Key: (2048 bit)
                Modulus:
                    00:bc:1a:66:93:e9:f7:a7:3f:1f:7b:01:4b:e1:d8:
                    99:76:6b:30:7f:7b:d3:75:41:f8:36:02:ef:69:28:
                    07:33:f1:5b:9e:d6:7d:cb:6d:ea:bb:d2:13:80:0c:
                    5b:52:e5:6e:7d:c3:d2:9f:fc:60:94:7b:b2:0d:de:
                    36:3a:34:04:e2:14:78:d2:54:c4:ca:3d:43:76:a9:
                    e7:84:43:25:4f:a7:34:9b:1d:a2:1e:86:40:ac:17:
                    7f:ac:54:46:7b:47:a5:52:b0:28:81:1c:42:de:81:
                    9a:70:24:f7:f0:1c:74:01:fe:6d:2c:83:81:ec:e2:
                    5f:cd:16:15:60:b2:f0:7a:a4:d3:92:0d:62:ee:0a:
                    3f:dc:fc:cd:6b:68:3d:3d:66:b2:55:7b:0b:eb:20:
                    50:66:03:94:18:4b:e2:f5:c1:21:ee:79:ae:31:5b:
                    59:99:cd:00:2e:74:57:a1:b1:eb:76:ec:e3:40:b4:
                    ee:bd:1e:15:8b:60:a2:05:99:c8:98:25:1a:80:16:
                    b0:b1:4f:98:f6:46:e8:25:3e:c0:6b:42:9f:ff:de:
                    aa:b3:5d:1e:b5:4d:8e:9b:d3:ae:66:53:a2:23:0e:
                    00:e5:c8:fa:ab:3e:c4:97:2f:35:28:e5:4c:fa:92:
                    e2:fe:44:99:e5:6e:70:fb:f7:c1:00:12:d9:25:76:
                    48:59
                Exponent: 65537 (0x10001)
        X509v3 extensions:
            X509v3 Key Usage: critical
                Digital Signature
            X509v3 Basic Constraints: 
                CA:FALSE
            X509v3 Extended Key Usage: 
                TLS Web Server Authentication
            X509v3 Subject Key Identifier: 
                7A:AB:6B:6E:40:B5:54:8F:14:B4:94:09:B4:2D:67:CF:9B:3B:F3:10
            X509v3 Authority Key Identifier: 
                33:1A:81:E6:00:5B:F5:6E:17:DE:78:9B:32:F7:D1:A5:0B:E1:2E:31
            Authority Information Access: 
                CA Issuers - URI:http://pki.esodemoapp2.com/ca/root-ca.cer
            X509v3 CRL Distribution Points: 
                Full Name:
                  URI:http://pki.esodemoapp2.com/ca/root-ca.crl
            X509v3 Subject Alternative Name: 
                DNS:http.domain.com
    Signature Algorithm: sha256WithRSAEncryption
    Signature Value:
        59:df:7d:52:01:81:a3:05:d2:04:1b:d1:77:f9:1d:fd:52:49:
        ae:50:b0:6c:38:a1:f5:f8:c4:56:14:09:98:8f:04:4a:e4:b8:
        df:11:c5:24:b9:ed:34:f4:8a:2a:3c:6c:95:42:9d:91:f4:3f:
        f4:69:cd:1e:1e:e9:cb:06:8a:95:5c:27:19:3b:6f:3d:48:9a:
        2d:84:e6:02:2b:6d:0b:af:5a:01:55:26:da:2f:df:34:3b:2f:
        8b:01:81:26:2e:16:a4:39:d9:7c:61:5f:ce:cf:8e:e7:70:eb:
        a8:d8:29:f7:d8:16:9f:2f:5d:d2:8f:d2:da:fa:c7:85:cc:bb:
        1f:f4:35:4e:95:8c:0d:c9:ab:2a:fb:49:50:e9:ea:90:1f:18:
        78:39:02:b9:a0:3e:18:44:de:37:ba:e1:82:01:44:a3:e5:4a:
        7d:6b:dd:75:a7:d3:c5:b2:58:f9:9b:04:aa:cf:67:2b:de:ba:
        34:54:5e:56:e2:94:93:d4:7b:e4:c4:ae:bd:6d:27:3d:7a:4e:
        12:fd:85:9b:43:7e:a2:fc:48:29:5c:d4:9b:f5:ba:ad:4f:7d:
        92:99:cb:ec:e7:1b:e2:ff:30:0e:ac:e5:a4:94:62:f7:84:9d:
        ba:a3:66:a0:5c:11:4e:c9:98:ea:6a:9c:b9:24:87:ba:62:88:
        47:a7:91:c5
-----BEGIN CERTIFICATE-----
MIIEKTCCAxGgAwIBAgIBAjANBgkqhkiG9w0BAQsFADBMMQswCQYDVQQGEwJVUzEP
MA0GA1UECgwGR29vZ2xlMRMwEQYDVQQLDApFbnRlcnByaXNlMRcwFQYDVQQDDA5T
aW5nbGUgUm9vdCBDQTAeFw0yNDExMTYxMzU1MzNaFw0zNDExMTYxMzU1MzNaME0x
CzAJBgNVBAYTAlVTMQ8wDQYDVQQKDAZHb29nbGUxEzARBgNVBAsMCkVudGVycHJp
c2UxGDAWBgNVBAMMD2h0dHAuZG9tYWluLmNvbTCCASIwDQYJKoZIhvcNAQEBBQAD
ggEPADCCAQoCggEBALwaZpPp96c/H3sBS+HYmXZrMH9703VB+DYC72koBzPxW57W
fctt6rvSE4AMW1Llbn3D0p/8YJR7sg3eNjo0BOIUeNJUxMo9Q3ap54RDJU+nNJsd
oh6GQKwXf6xURntHpVKwKIEcQt6BmnAk9/AcdAH+bSyDgeziX80WFWCy8Hqk05IN
Yu4KP9z8zWtoPT1mslV7C+sgUGYDlBhL4vXBIe55rjFbWZnNAC50V6Gx63bs40C0
7r0eFYtgogWZyJglGoAWsLFPmPZG6CU+wGtCn//eqrNdHrVNjpvTrmZToiMOAOXI
+qs+xJcvNSjlTPqS4v5EmeVucPv3wQAS2SV2SFkCAwEAAaOCARMwggEPMA4GA1Ud
DwEB/wQEAwIHgDAJBgNVHRMEAjAAMBMGA1UdJQQMMAoGCCsGAQUFBwMBMB0GA1Ud
DgQWBBR6q2tuQLVUjxS0lAm0LWfPmzvzEDAfBgNVHSMEGDAWgBQzGoHmAFv1bhfe
eJsy99GlC+EuMTBFBggrBgEFBQcBAQQ5MDcwNQYIKwYBBQUHMAKGKWh0dHA6Ly9w
a2kuZXNvZGVtb2FwcDIuY29tL2NhL3Jvb3QtY2EuY2VyMDoGA1UdHwQzMDEwL6At
oCuGKWh0dHA6Ly9wa2kuZXNvZGVtb2FwcDIuY29tL2NhL3Jvb3QtY2EuY3JsMBoG
A1UdEQQTMBGCD2h0dHAuZG9tYWluLmNvbTANBgkqhkiG9w0BAQsFAAOCAQEAWd99
UgGBowXSBBvRd/kd/VJJrlCwbDih9fjEVhQJmI8ESuS43xHFJLntNPSKKjxslUKd
kfQ/9GnNHh7pywaKlVwnGTtvPUiaLYTmAittC69aAVUm2i/fNDsviwGBJi4WpDnZ
fGFfzs+O53DrqNgp99gWny9d0o/S2vrHhcy7H/Q1TpWMDcmrKvtJUOnqkB8YeDkC
uaA+GETeN7rhggFEo+VKfWvddafTxbJY+ZsEqs9nK966NFReVuKUk9R75MSuvW0n
PXpOEv2Fm0N+ovxIKVzUm/W6rU99kpnL7Ocb4v8wDqzlpJRi94SduqNmoFwRTsmY
6mqcuSSHumKIR6eRxQ==
-----END CERTIFICATE-----
Certificate:
    Data:
        Version: 3 (0x2)
        Serial Number: 1 (0x1)
        Signature Algorithm: sha256WithRSAEncryption
        Issuer: C=US, O=Google, OU=Enterprise, CN=Single Root CA
        Validity
            Not Before: Nov 16 13:52:13 2024 GMT
            Not After : Nov 16 13:52:13 2034 GMT
        Subject: C=US, O=Google, OU=Enterprise, CN=Single Root CA
        Subject Public Key Info:
            Public Key Algorithm: rsaEncryption
                Public-Key: (2048 bit)
                Modulus:
                    00:9e:8a:b7:25:d7:4b:dc:55:ab:02:13:4d:01:9d:
                    e3:51:8b:aa:a1:22:be:8a:b4:b7:1f:3c:69:a3:7f:
                    2e:8d:e6:e7:4d:c1:14:c1:a1:4e:af:20:a8:fc:54:
                    de:3e:7b:75:19:a0:9c:53:07:39:f2:86:3e:1d:ca:
                    f0:a2:0b:40:e5:db:74:2f:3d:5a:4e:59:b7:95:3c:
                    f2:76:48:e8:cb:c5:1b:30:25:20:ed:8c:6f:6c:9f:
                    05:62:ae:a7:5d:04:58:fc:c9:7d:ae:a7:6b:b8:bf:
                    71:3c:a4:02:ed:40:f1:be:70:eb:13:ac:9c:40:4c:
                    01:3d:76:d9:89:ce:7d:46:66:b7:4b:4b:c4:98:00:
                    31:e9:30:1d:75:78:e1:dd:a2:0e:be:ee:ac:8e:f6:
                    c7:fb:d6:8e:c2:21:3c:00:08:d0:67:51:a5:a8:ce:
                    b7:ba:73:7f:92:db:7a:51:00:72:b7:58:fe:12:81:
                    37:01:34:6a:36:9d:b8:f3:af:01:c7:4a:36:5a:b6:
                    bc:90:98:d4:8c:d3:c0:f5:41:71:98:fa:82:1c:74:
                    e2:7e:3a:0d:30:e2:38:93:85:f0:97:01:50:78:ca:
                    6b:45:96:ff:95:fb:17:79:c4:a6:13:41:b3:d8:37:
                    4a:0e:db:28:18:29:aa:8e:67:85:6a:30:5c:1b:07:
                    32:ed
                Exponent: 65537 (0x10001)
        X509v3 extensions:
            X509v3 Key Usage: critical
                Certificate Sign, CRL Sign
            X509v3 Basic Constraints: critical
                CA:TRUE
            X509v3 Subject Key Identifier: 
                33:1A:81:E6:00:5B:F5:6E:17:DE:78:9B:32:F7:D1:A5:0B:E1:2E:31
            X509v3 Authority Key Identifier: 
                33:1A:81:E6:00:5B:F5:6E:17:DE:78:9B:32:F7:D1:A5:0B:E1:2E:31
    Signature Algorithm: sha256WithRSAEncryption
    Signature Value:
        65:bf:87:9a:4b:86:f1:cb:b3:51:af:09:36:9a:95:e6:89:66:
        95:ef:7d:6f:bb:38:8d:be:d6:0a:6c:53:55:e3:23:60:a3:af:
        2e:ce:da:c3:ba:df:2d:0b:31:e7:2a:a5:03:79:44:e2:a6:ef:
        06:5e:01:d2:4b:2a:b2:28:02:2e:43:2a:bd:6e:fc:ed:45:70:
        f0:03:b9:10:9c:36:cc:c9:bc:b9:52:65:b0:a2:a2:ce:28:03:
        be:2e:31:b4:a5:6b:5e:ec:b5:60:9c:af:86:83:70:f4:76:53:
        2c:7b:21:f0:54:f9:bd:90:6d:c3:7c:bf:44:b9:12:e0:b9:17:
        f1:89:e3:dc:2f:5f:2c:4a:e9:6a:6f:df:b7:b0:b2:24:7f:0c:
        23:93:a7:3f:c8:3e:85:cb:98:09:a3:31:d0:ad:8f:49:8b:cf:
        fb:d5:9f:5c:c7:21:6f:49:11:db:53:5c:9e:f7:0c:e2:44:7c:
        98:da:50:5c:b8:53:5b:8b:4a:05:31:3e:a1:87:c1:39:93:90:
        85:44:be:6a:7b:82:9a:bd:f8:39:e2:c4:07:ea:2f:08:4a:2c:
        ff:4f:cf:1a:f0:40:c7:e3:22:82:ce:d7:3a:9e:e0:0e:b3:50:
        81:63:08:0e:67:65:57:d3:c3:59:8b:fc:4f:48:39:3a:ac:fc:
        ba:59:c9:c4
-----BEGIN CERTIFICATE-----
MIIDdjCCAl6gAwIBAgIBATANBgkqhkiG9w0BAQsFADBMMQswCQYDVQQGEwJVUzEP
MA0GA1UECgwGR29vZ2xlMRMwEQYDVQQLDApFbnRlcnByaXNlMRcwFQYDVQQDDA5T
aW5nbGUgUm9vdCBDQTAeFw0yNDExMTYxMzUyMTNaFw0zNDExMTYxMzUyMTNaMEwx
CzAJBgNVBAYTAlVTMQ8wDQYDVQQKDAZHb29nbGUxEzARBgNVBAsMCkVudGVycHJp
c2UxFzAVBgNVBAMMDlNpbmdsZSBSb290IENBMIIBIjANBgkqhkiG9w0BAQEFAAOC
AQ8AMIIBCgKCAQEAnoq3JddL3FWrAhNNAZ3jUYuqoSK+irS3Hzxpo38ujebnTcEU
waFOryCo/FTePnt1GaCcUwc58oY+HcrwogtA5dt0Lz1aTlm3lTzydkjoy8UbMCUg
7YxvbJ8FYq6nXQRY/Ml9rqdruL9xPKQC7UDxvnDrE6ycQEwBPXbZic59Rma3S0vE
mAAx6TAddXjh3aIOvu6sjvbH+9aOwiE8AAjQZ1GlqM63unN/ktt6UQByt1j+EoE3
ATRqNp24868Bx0o2Wra8kJjUjNPA9UFxmPqCHHTifjoNMOI4k4XwlwFQeMprRZb/
lfsXecSmE0Gz2DdKDtsoGCmqjmeFajBcGwcy7QIDAQABo2MwYTAOBgNVHQ8BAf8E
BAMCAQYwDwYDVR0TAQH/BAUwAwEB/zAdBgNVHQ4EFgQUMxqB5gBb9W4X3nibMvfR
pQvhLjEwHwYDVR0jBBgwFoAUMxqB5gBb9W4X3nibMvfRpQvhLjEwDQYJKoZIhvcN
AQELBQADggEBAGW/h5pLhvHLs1GvCTaaleaJZpXvfW+7OI2+1gpsU1XjI2Cjry7O
2sO63y0LMecqpQN5ROKm7wZeAdJLKrIoAi5DKr1u/O1FcPADuRCcNszJvLlSZbCi
os4oA74uMbSla17stWCcr4aDcPR2Uyx7IfBU+b2QbcN8v0S5EuC5F/GJ49wvXyxK
6Wpv37ewsiR/DCOTpz/IPoXLmAmjMdCtj0mLz/vVn1zHIW9JEdtTXJ73DOJEfJja
UFy4U1uLSgUxPqGHwTmTkIVEvmp7gpq9+DnixAfqLwhKLP9PzxrwQMfjIoLO1zqe
4A6zUIFjCA5nZVfTw1mL/E9IOTqs/LpZycQ=
-----END CERTIFICATE-----
